(dp0
I0
(dp1
S'count'
p2
I34
sS'grille'
p3
(lp4
(lp5
I0
aI0
aI1
aI0
aI1
aI1
aI1
aI1
aI1
aI1
aa(lp6
I0
aI0
aI0
aI0
aI0
aI0
aI0
aI1
aI1
aI0
aa(lp7
I1
aI1
aI1
aI0
aI0
aI0
aI1
aI0
aI0
aI0
aa(lp8
I1
aI0
aI1
aI0
aI1
aI0
aI0
aI1
aI0
aI1
aa(lp9
I0
aI1
aI0
aI0
aI1
aI0
aI0
aI1
aI1
aI0
aa(lp10
I0
aI0
aI0
aI0
aI0
aI0
aI1
aI0
aI1
aI1
aa(lp11
I0
aI0
aI0
aI1
aI1
aI0
aI0
aI0
aI0
aI0
aa(lp12
I0
aI1
aI0
aI0
aI0
aI0
aI1
aI0
aI0
aI1
aa(lp13
I1
aI0
aI0
aI0
aI0
aI0
aI0
aI0
aI0
aI1
aa(lp14
I0
aI1
aI0
aI0
aI0
aI0
aI0
aI1
aI0
aI0
aassI1
(dp15
g2
I46
sg3
(lp16
(lp17
I0
aI0
aI0
aI0
aI0
aI1
aI1
aI0
aI0
aI1
aa(lp18
I1
aI0
aI0
aI0
aI1
aI0
aI1
aI1
aI1
aI0
aa(lp19
I0
aI1
aI1
aI1
aI1
aI0
aI0
aI0
aI1
aI0
aa(lp20
I1
aI0
aI1
aI1
aI1
aI0
aI0
aI0
aI1
aI1
aa(lp21
I1
aI0
aI0
aI0
aI0
aI0
aI1
aI1
aI0
aI0
aa(lp22
I0
aI1
aI0
aI0
aI0
aI0
aI1
aI0
aI1
aI0
aa(lp23
I1
aI1
aI0
aI1
aI1
aI1
aI0
aI1
aI0
aI0
aa(lp24
I1
aI1
aI1
aI0
aI0
aI1
aI0
aI1
aI1
aI0
aa(lp25
I0
aI1
aI0
aI1
aI0
aI1
aI0
aI0
aI1
aI1
aa(lp26
I0
aI0
aI1
aI1
aI0
aI0
aI0
aI0
aI1
aI1
aassI2
(dp27
g2
I64
sg3
(lp28
(lp29
I0
aI0
aI0
aI1
aI0
aI1
aI0
aI1
aI1
aI1
aa(lp30
I1
aI1
aI1
aI0
aI1
aI1
aI1
aI1
aI0
aI1
aa(lp31
I0
aI1
aI1
aI1
aI1
aI1
aI1
aI1
aI1
aI1
aa(lp32
I1
aI1
aI1
aI1
aI0
aI1
aI0
aI0
aI0
aI1
aa(lp33
I1
aI0
aI1
aI1
aI1
aI1
aI0
aI0
aI1
aI1
aa(lp34
I0
aI0
aI0
aI1
aI1
aI0
aI0
aI1
aI1
aI1
aa(lp35
I1
aI1
aI1
aI0
aI1
aI0
aI0
aI1
aI1
aI0
aa(lp36
I0
aI1
aI0
aI1
aI1
aI0
aI1
aI0
aI0
aI1
aa(lp37
I0
aI0
aI0
aI1
aI0
aI1
aI1
aI1
aI1
aI1
aa(lp38
I1
aI1
aI0
aI0
aI1
aI0
aI1
aI1
aI1
aI1
aassI3
(dp39
g2
I51
sg3
(lp40
(lp41
I1
aI0
aI1
aI1
aI1
aI0
aI0
aI1
aI0
aI0
aa(lp42
I1
aI1
aI1
aI0
aI1
aI0
aI1
aI0
aI1
aI1
aa(lp43
I1
aI1
aI1
aI0
aI0
aI0
aI0
aI0
aI0
aI0
aa(lp44
I1
aI0
aI1
aI0
aI1
aI1
aI1
aI0
aI0
aI1
aa(lp45
I0
aI1
aI1
aI1
aI1
aI1
aI0
aI0
aI1
aI0
aa(lp46
I0
aI1
aI0
aI1
aI1
aI0
aI0
aI1
aI0
aI1
aa(lp47
I0
aI0
aI1
aI0
aI0
aI0
aI1
aI0
aI0
aI1
aa(lp48
I1
aI1
aI0
aI1
aI0
aI1
aI1
aI0
aI1
aI1
aa(lp49
I0
aI1
aI0
aI1
aI1
aI1
aI0
aI1
aI1
aI0
aa(lp50
I0
aI0
aI1
aI0
aI0
aI0
aI0
aI1
aI0
aI1
aassI4
(dp51
g2
I48
sg3
(lp52
(lp53
I1
aI1
aI0
aI1
aI1
aI0
aI1
aI1
aI1
aI0
aa(lp54
I1
aI1
aI0
aI1
aI1
aI0
aI0
aI0
aI0
aI1
aa(lp55
I0
aI1
aI1
aI0
aI0
aI0
aI1
aI0
aI0
aI0
aa(lp56
I0
aI0
aI1
aI0
aI1
aI1
aI0
aI0
aI0
aI1
aa(lp57
I0
aI0
aI0
aI1
aI1
aI0
aI0
aI0
aI1
aI1
aa(lp58
I1
aI1
aI1
aI1
aI0
aI0
aI0
aI1
aI0
aI0
aa(lp59
I0
aI1
aI0
aI1
aI0
aI1
aI0
aI1
aI1
aI1
aa(lp60
I0
aI0
aI1
aI1
aI1
aI1
aI0
aI0
aI1
aI0
aa(lp61
I0
aI1
aI0
aI0
aI1
aI1
aI0
aI1
aI0
aI1
aa(lp62
I1
aI0
aI0
aI0
aI1
aI1
aI0
aI0
aI0
aI1
aassI5
(dp63
g2
I31
sg3
(lp64
(lp65
I1
aI0
aI0
aI1
aI0
aI1
aI1
aI0
aI0
aI1
aa(lp66
I0
aI0
aI0
aI0
aI0
aI0
aI0
aI0
aI1
aI1
aa(lp67
I0
aI1
aI0
aI0
aI0
aI1
aI0
aI0
aI1
aI0
aa(lp68
I1
aI0
aI0
aI0
aI0
aI0
aI1
aI0
aI0
aI1
aa(lp69
I0
aI1
aI0
aI0
aI0
aI1
aI0
aI0
aI1
aI0
aa(lp70
I1
aI1
aI1
aI1
aI0
aI0
aI0
aI0
aI1
aI0
aa(lp71
I0
aI0
aI0
aI1
aI0
aI0
aI0
aI0
aI0
aI0
aa(lp72
I0
aI1
aI1
aI0
aI0
aI0
aI0
aI0
aI0
aI0
aa(lp73
I1
aI0
aI0
aI0
aI0
aI0
aI1
aI0
aI0
aI0
aa(lp74
I0
aI0
aI1
aI1
aI1
aI0
aI1
aI0
aI0
aI1
aassI6
(dp75
g2
I68
sg3
(lp76
(lp77
I1
aI1
aI1
aI0
aI1
aI0
aI0
aI0
aI1
aI1
aa(lp78
I1
aI1
aI0
aI1
aI0
aI1
aI1
aI0
aI1
aI1
aa(lp79
I1
aI0
aI0
aI1
aI1
aI1
aI1
aI1
aI1
aI1
aa(lp80
I0
aI0
aI1
aI0
aI1
aI1
aI0
aI0
aI1
aI0
aa(lp81
I0
aI1
aI0
aI1
aI1
aI1
aI1
aI1
aI1
aI1
aa(lp82
I0
aI1
aI0
aI1
aI1
aI1
aI1
aI1
aI1
aI1
aa(lp83
I1
aI1
aI0
aI0
aI1
aI1
aI0
aI0
aI0
aI1
aa(lp84
I1
aI0
aI1
aI1
aI0
aI1
aI1
aI0
aI1
aI0
aa(lp85
I1
aI1
aI1
aI1
aI0
aI0
aI0
aI1
aI0
aI1
aa(lp86
I1
aI1
aI1
aI1
aI1
aI1
aI1
aI1
aI1
aI1
aassI7
(dp87
g2
I72
sg3
(lp88
(lp89
I1
aI1
aI1
aI1
aI1
aI1
aI0
aI1
aI1
aI1
aa(lp90
I0
aI0
aI0
aI1
aI1
aI1
aI1
aI1
aI1
aI1
aa(lp91
I1
aI0
aI1
aI1
aI1
aI0
aI1
aI1
aI0
aI1
aa(lp92
I0
aI0
aI1
aI1
aI0
aI1
aI1
aI0
aI0
aI1
aa(lp93
I1
aI1
aI0
aI1
aI1
aI1
aI1
aI1
aI1
aI0
aa(lp94
I0
aI1
aI0
aI1
aI1
aI1
aI0
aI1
aI1
aI1
aa(lp95
I1
aI0
aI1
aI1
aI1
aI1
aI0
aI1
aI1
aI1
aa(lp96
I1
aI1
aI1
aI0
aI0
aI1
aI1
aI1
aI1
aI1
aa(lp97
I1
aI1
aI1
aI1
aI0
aI1
aI1
aI0
aI0
aI1
aa(lp98
I0
aI1
aI1
aI0
aI1
aI1
aI0
aI1
aI1
aI0
aassI8
(dp99
g2
I93
sg3
(lp100
(lp101
I1
aI1
aI1
aI0
aI1
aI1
aI1
aI1
aI1
aI1
aa(lp102
I1
aI1
aI0
aI1
aI1
aI1
aI1
aI1
aI1
aI1
aa(lp103
I1
aI1
aI1
aI1
aI0
aI1
aI1
aI1
aI1
aI1
aa(lp104
I1
aI1
aI1
aI1
aI1
aI1
aI1
aI1
aI1
aI1
aa(lp105
I1
aI1
aI1
aI1
aI1
aI1
aI1
aI1
aI1
aI1
aa(lp106
I1
aI1
aI0
aI1
aI1
aI1
aI1
aI1
aI1
aI1
aa(lp107
I1
aI1
aI1
aI1
aI1
aI1
aI1
aI1
aI1
aI1
aa(lp108
I1
aI0
aI1
aI1
aI1
aI1
aI1
aI1
aI1
aI1
aa(lp109
I1
aI1
aI0
aI1
aI1
aI1
aI1
aI0
aI1
aI1
aa(lp110
I1
aI1
aI1
aI1
aI1
aI1
aI1
aI1
aI1
aI1
aassI9
(dp111
g2
I41
sg3
(lp112
(lp113
I1
aI0
aI0
aI0
aI0
aI1
aI1
aI0
aI0
aI1
aa(lp114
I1
aI1
aI1
aI0
aI0
aI0
aI0
aI0
aI1
aI1
aa(lp115
I0
aI1
aI1
aI1
aI0
aI0
aI1
aI1
aI0
aI0
aa(lp116
I1
aI1
aI0
aI1
aI0
aI1
aI1
aI0
aI0
aI0
aa(lp117
I1
aI0
aI0
aI0
aI0
aI1
aI0
aI1
aI0
aI0
aa(lp118
I1
aI0
aI1
aI0
aI0
aI0
aI0
aI0
aI0
aI1
aa(lp119
I0
aI1
aI0
aI1
aI0
aI1
aI1
aI1
aI0
aI0
aa(lp120
I0
aI1
aI0
aI0
aI1
aI0
aI0
aI0
aI1
aI1
aa(lp121
I1
aI1
aI1
aI0
aI1
aI0
aI0
aI0
aI0
aI1
aa(lp122
I0
aI0
aI0
aI0
aI0
aI0
aI0
aI1
aI1
aI0
aassI10
(dp123
g2
I92
sg3
(lp124
(lp125
I1
aI1
aI1
aI1
aI1
aI1
aI1
aI0
aI1
aI1
aa(lp126
I1
aI1
aI1
aI1
aI1
aI1
aI1
aI1
aI1
aI1
aa(lp127
I1
aI1
aI1
aI1
aI1
aI1
aI1
aI1
aI1
aI1
aa(lp128
I1
aI1
aI1
aI0
aI0
aI0
aI1
aI1
aI1
aI1
aa(lp129
I1
aI1
aI1
aI1
aI1
aI1
aI1
aI1
aI1
aI1
aa(lp130
I1
aI1
aI1
aI1
aI1
aI1
aI1
aI1
aI1
aI1
aa(lp131
I1
aI1
aI1
aI1
aI1
aI1
aI1
aI1
aI1
aI1
aa(lp132
I1
aI1
aI1
aI1
aI1
aI1
aI1
aI1
aI1
aI1
aa(lp133
I1
aI1
aI1
aI1
aI1
aI1
aI1
aI0
aI1
aI1
aa(lp134
I0
aI1
aI1
aI1
aI1
aI0
aI1
aI0
aI1
aI1
aassI11
(dp135
g2
I12
sg3
(lp136
(lp137
I0
aI0
aI0
aI1
aI0
aI0
aI0
aI0
aI0
aI0
aa(lp138
I0
aI0
aI1
aI0
aI0
aI0
aI1
aI0
aI1
aI0
aa(lp139
I0
aI1
aI0
aI0
aI0
aI0
aI0
aI0
aI0
aI0
aa(lp140
I0
aI1
aI0
aI0
aI0
aI0
aI0
aI0
aI0
aI0
aa(lp141
I0
aI1
aI0
aI0
aI0
aI0
aI0
aI0
aI0
aI0
aa(lp142
I0
aI0
aI0
aI0
aI0
aI0
aI0
aI0
aI0
aI0
aa(lp143
I0
aI0
aI0
aI0
aI0
aI1
aI0
aI0
aI0
aI0
aa(lp144
I0
aI0
aI0
aI1
aI0
aI0
aI0
aI0
aI0
aI0
aa(lp145
I0
aI0
aI0
aI0
aI1
aI0
aI0
aI0
aI0
aI0
aa(lp146
I0
aI0
aI1
aI0
aI0
aI0
aI0
aI0
aI1
aI0
aassI12
(dp147
g2
I77
sg3
(lp148
(lp149
I1
aI1
aI1
aI0
aI1
aI1
aI0
aI0
aI1
aI1
aa(lp150
I1
aI1
aI1
aI1
aI0
aI0
aI1
aI1
aI1
aI1
aa(lp151
I1
aI1
aI1
aI0
aI0
aI1
aI1
aI1
aI1
aI0
aa(lp152
I1
aI1
aI1
aI1
aI1
aI1
aI1
aI1
aI1
aI0
aa(lp153
I1
aI1
aI1
aI1
aI1
aI1
aI1
aI1
aI1
aI0
aa(lp154
I1
aI0
aI1
aI1
aI1
aI0
aI1
aI0
aI1
aI0
aa(lp155
I1
aI1
aI1
aI1
aI1
aI0
aI0
aI1
aI0
aI0
aa(lp156
I1
aI1
aI1
aI1
aI1
aI1
aI0
aI0
aI1
aI1
aa(lp157
I1
aI1
aI1
aI1
aI1
aI1
aI1
aI1
aI1
aI1
aa(lp158
I1
aI1
aI0
aI0
aI1
aI1
aI0
aI1
aI1
aI1
aassI13
(dp159
g2
I26
sg3
(lp160
(lp161
I0
aI0
aI1
aI1
aI0
aI0
aI0
aI1
aI0
aI0
aa(lp162
I1
aI1
aI0
aI0
aI1
aI0
aI0
aI0
aI0
aI1
aa(lp163
I0
aI1
aI0
aI0
aI0
aI0
aI0
aI0
aI0
aI0
aa(lp164
I0
aI0
aI1
aI0
aI0
aI0
aI0
aI1
aI0
aI0
aa(lp165
I1
aI0
aI1
aI1
aI0
aI0
aI0
aI0
aI0
aI0
aa(lp166
I0
aI0
aI0
aI0
aI0
aI1
aI1
aI0
aI0
aI1
aa(lp167
I1
aI0
aI0
aI0
aI0
aI0
aI1
aI1
aI0
aI1
aa(lp168
I0
aI0
aI0
aI1
aI0
aI0
aI0
aI0
aI0
aI0
aa(lp169
I0
aI1
aI0
aI1
aI0
aI0
aI1
aI0
aI0
aI0
aa(lp170
I0
aI1
aI0
aI0
aI0
aI1
aI0
aI0
aI0
aI0
aassI14
(dp171
g2
I54
sg3
(lp172
(lp173
I0
aI0
aI0
aI1
aI1
aI0
aI1
aI0
aI1
aI1
aa(lp174
I1
aI1
aI0
aI1
aI1
aI1
aI0
aI0
aI0
aI0
aa(lp175
I0
aI1
aI0
aI1
aI0
aI1
aI0
aI0
aI1
aI0
aa(lp176
I1
aI1
aI0
aI1
aI1
aI1
aI1
aI0
aI1
aI1
aa(lp177
I1
aI0
aI1
aI1
aI0
aI0
aI0
aI0
aI0
aI1
aa(lp178
I1
aI1
aI1
aI1
aI1
aI1
aI0
aI0
aI1
aI1
aa(lp179
I0
aI0
aI1
aI1
aI1
aI0
aI1
aI1
aI1
aI0
aa(lp180
I1
aI1
aI1
aI0
aI0
aI1
aI0
aI0
aI0
aI0
aa(lp181
I0
aI0
aI1
aI1
aI0
aI0
aI0
aI0
aI1
aI1
aa(lp182
I1
aI1
aI1
aI1
aI0
aI0
aI0
aI0
aI1
aI1
aassI15
(dp183
g2
I78
sg3
(lp184
(lp185
I1
aI1
aI0
aI1
aI1
aI0
aI1
aI1
aI0
aI1
aa(lp186
I0
aI1
aI1
aI1
aI1
aI1
aI1
aI1
aI1
aI1
aa(lp187
I1
aI1
aI0
aI1
aI1
aI1
aI1
aI1
aI0
aI0
aa(lp188
I1
aI1
aI1
aI1
aI1
aI1
aI1
aI1
aI1
aI1
aa(lp189
I1
aI1
aI1
aI0
aI1
aI1
aI0
aI1
aI1
aI1
aa(lp190
I0
aI0
aI1
aI1
aI1
aI1
aI0
aI1
aI1
aI0
aa(lp191
I1
aI1
aI1
aI1
aI1
aI1
aI1
aI1
aI0
aI0
aa(lp192
I1
aI0
aI1
aI0
aI1
aI1
aI1
aI0
aI1
aI1
aa(lp193
I1
aI0
aI1
aI0
aI1
aI1
aI1
aI1
aI1
aI1
aa(lp194
I1
aI1
aI1
aI1
aI1
aI1
aI1
aI1
aI0
aI0
aassI16
(dp195
g2
I77
sg3
(lp196
(lp197
I1
aI0
aI0
aI1
aI0
aI1
aI1
aI1
aI0
aI1
aa(lp198
I1
aI1
aI1
aI1
aI0
aI1
aI0
aI1
aI1
aI1
aa(lp199
I1
aI1
aI1
aI0
aI0
aI1
aI1
aI1
aI1
aI0
aa(lp200
I1
aI1
aI1
aI1
aI1
aI1
aI1
aI1
aI1
aI1
aa(lp201
I1
aI1
aI0
aI1
aI1
aI1
aI1
aI1
aI1
aI0
aa(lp202
I1
aI1
aI1
aI0
aI1
aI1
aI1
aI1
aI1
aI0
aa(lp203
I1
aI0
aI0
aI1
aI1
aI0
aI0
aI0
aI1
aI1
aa(lp204
I1
aI1
aI1
aI1
aI1
aI1
aI0
aI1
aI1
aI1
aa(lp205
I1
aI1
aI0
aI1
aI0
aI1
aI1
aI1
aI1
aI1
aa(lp206
I1
aI1
aI1
aI0
aI1
aI1
aI1
aI1
aI0
aI1
aassI17
(dp207
g2
I82
sg3
(lp208
(lp209
I1
aI1
aI1
aI1
aI1
aI1
aI1
aI1
aI1
aI1
aa(lp210
I1
aI1
aI1
aI1
aI1
aI1
aI1
aI1
aI0
aI1
aa(lp211
I1
aI0
aI0
aI1
aI0
aI1
aI0
aI1
aI1
aI1
aa(lp212
I0
aI0
aI1
aI1
aI0
aI1
aI1
aI1
aI1
aI1
aa(lp213
I1
aI1
aI1
aI1
aI1
aI1
aI0
aI1
aI1
aI1
aa(lp214
I1
aI1
aI0
aI1
aI1
aI1
aI1
aI1
aI1
aI1
aa(lp215
I1
aI0
aI0
aI1
aI0
aI0
aI1
aI1
aI0
aI1
aa(lp216
I1
aI1
aI1
aI1
aI1
aI0
aI1
aI1
aI0
aI1
aa(lp217
I1
aI1
aI1
aI1
aI1
aI1
aI0
aI1
aI1
aI1
aa(lp218
I1
aI1
aI1
aI1
aI1
aI1
aI1
aI1
aI1
aI1
aassI18
(dp219
g2
I11
sg3
(lp220
(lp221
I0
aI0
aI0
aI0
aI0
aI0
aI0
aI0
aI0
aI0
aa(lp222
I0
aI0
aI0
aI0
aI0
aI0
aI0
aI0
aI0
aI0
aa(lp223
I0
aI0
aI0
aI0
aI0
aI0
aI0
aI0
aI0
aI0
aa(lp224
I0
aI0
aI0
aI0
aI0
aI0
aI1
aI1
aI1
aI0
aa(lp225
I0
aI0
aI0
aI0
aI0
aI0
aI0
aI0
aI1
aI1
aa(lp226
I0
aI0
aI0
aI0
aI0
aI0
aI0
aI0
aI1
aI0
aa(lp227
I0
aI0
aI0
aI1
aI0
aI0
aI0
aI1
aI0
aI0
aa(lp228
I0
aI0
aI0
aI0
aI0
aI0
aI0
aI0
aI0
aI0
aa(lp229
I0
aI0
aI0
aI0
aI0
aI0
aI0
aI0
aI0
aI0
aa(lp230
I0
aI0
aI0
aI0
aI0
aI0
aI1
aI1
aI1
aI0
aassI19
(dp231
g2
I7
sg3
(lp232
(lp233
I0
aI0
aI0
aI0
aI1
aI0
aI0
aI0
aI0
aI0
aa(lp234
I1
aI1
aI1
aI0
aI0
aI0
aI0
aI0
aI0
aI0
aa(lp235
I0
aI0
aI0
aI0
aI0
aI0
aI0
aI0
aI0
aI0
aa(lp236
I0
aI0
aI0
aI0
aI0
aI0
aI0
aI0
aI0
aI0
aa(lp237
I0
aI0
aI0
aI1
aI0
aI0
aI0
aI0
aI0
aI0
aa(lp238
I0
aI0
aI0
aI0
aI0
aI0
aI0
aI0
aI0
aI0
aa(lp239
I0
aI0
aI0
aI0
aI1
aI0
aI0
aI0
aI0
aI0
aa(lp240
I0
aI0
aI0
aI0
aI0
aI0
aI0
aI0
aI0
aI0
aa(lp241
I0
aI0
aI0
aI1
aI0
aI0
aI0
aI0
aI0
aI0
aa(lp242
I0
aI0
aI0
aI0
aI0
aI0
aI0
aI0
aI0
aI0
aassI20
(dp243
g2
I35
sg3
(lp244
(lp245
I1
aI1
aI0
aI0
aI1
aI0
aI1
aI0
aI1
aI0
aa(lp246
I1
aI0
aI0
aI0
aI0
aI1
aI1
aI0
aI0
aI0
aa(lp247
I1
aI0
aI0
aI0
aI1
aI0
aI0
aI1
aI1
aI0
aa(lp248
I1
aI0
aI0
aI0
aI1
aI0
aI0
aI1
aI0
aI1
aa(lp249
I0
aI0
aI0
aI0
aI0
aI0
aI1
aI0
aI0
aI1
aa(lp250
I0
aI0
aI0
aI0
aI0
aI1
aI1
aI0
aI0
aI0
aa(lp251
I0
aI1
aI0
aI0
aI0
aI0
aI1
aI1
aI0
aI1
aa(lp252
I0
aI0
aI1
aI1
aI0
aI0
aI0
aI0
aI0
aI0
aa(lp253
I0
aI0
aI0
aI1
aI0
aI1
aI1
aI1
aI0
aI0
aa(lp254
I1
aI0
aI0
aI0
aI1
aI1
aI1
aI1
aI0
aI0
aassI21
(dp255
g2
I28
sg3
(lp256
(lp257
I0
aI0
aI0
aI0
aI0
aI0
aI1
aI0
aI0
aI0
aa(lp258
I0
aI0
aI0
aI0
aI1
aI1
aI0
aI0
aI1
aI0
aa(lp259
I0
aI0
aI0
aI0
aI0
aI0
aI0
aI0
aI0
aI1
aa(lp260
I0
aI0
aI0
aI1
aI1
aI0
aI0
aI0
aI1
aI0
aa(lp261
I0
aI0
aI0
aI0
aI0
aI0
aI0
aI0
aI0
aI1
aa(lp262
I0
aI0
aI0
aI1
aI0
aI0
aI0
aI0
aI1
aI0
aa(lp263
I1
aI0
aI1
aI0
aI0
aI0
aI0
aI0
aI0
aI0
aa(lp264
I1
aI0
aI0
aI1
aI0
aI1
aI1
aI0
aI0
aI0
aa(lp265
I1
aI0
aI1
aI0
aI1
aI1
aI1
aI0
aI1
aI1
aa(lp266
I0
aI1
aI1
aI0
aI0
aI0
aI0
aI1
aI0
aI1
aassI22
(dp267
g2
I28
sg3
(lp268
(lp269
I0
aI1
aI0
aI1
aI1
aI0
aI0
aI0
aI1
aI1
aa(lp270
I0
aI0
aI0
aI1
aI0
aI1
aI1
aI1
aI0
aI1
aa(lp271
I0
aI0
aI0
aI0
aI0
aI0
aI1
aI0
aI0
aI1
aa(lp272
I0
aI0
aI0
aI0
aI1
aI0
aI0
aI0
aI0
aI0
aa(lp273
I0
aI0
aI0
aI0
aI0
aI1
aI0
aI1
aI0
aI0
aa(lp274
I0
aI0
aI1
aI0
aI0
aI1
aI0
aI1
aI0
aI0
aa(lp275
I0
aI0
aI0
aI0
aI1
aI0
aI0
aI1
aI1
aI0
aa(lp276
I0
aI0
aI0
aI0
aI0
aI0
aI0
aI0
aI1
aI0
aa(lp277
I0
aI1
aI0
aI1
aI0
aI0
aI1
aI1
aI1
aI0
aa(lp278
I0
aI0
aI0
aI0
aI0
aI0
aI0
aI0
aI0
aI1
aassI23
(dp279
g2
I25
sg3
(lp280
(lp281
I0
aI1
aI0
aI0
aI0
aI0
aI0
aI1
aI0
aI1
aa(lp282
I1
aI0
aI0
aI0
aI1
aI0
aI0
aI0
aI0
aI0
aa(lp283
I0
aI0
aI0
aI1
aI0
aI1
aI0
aI1
aI0
aI0
aa(lp284
I0
aI0
aI0
aI0
aI0
aI0
aI0
aI0
aI1
aI0
aa(lp285
I0
aI1
aI0
aI1
aI0
aI1
aI0
aI0
aI0
aI1
aa(lp286
I0
aI0
aI1
aI1
aI0
aI0
aI0
aI0
aI0
aI0
aa(lp287
I0
aI0
aI1
aI0
aI1
aI0
aI0
aI0
aI0
aI1
aa(lp288
I0
aI1
aI1
aI0
aI0
aI0
aI0
aI0
aI0
aI0
aa(lp289
I1
aI0
aI0
aI1
aI0
aI0
aI0
aI0
aI0
aI1
aa(lp290
I0
aI0
aI1
aI1
aI0
aI0
aI0
aI0
aI0
aI0
aassI24
(dp291
g2
I3
sg3
(lp292
(lp293
I0
aI0
aI0
aI0
aI0
aI0
aI0
aI0
aI0
aI0
aa(lp294
I0
aI0
aI0
aI0
aI0
aI0
aI0
aI0
aI0
aI0
aa(lp295
I0
aI0
aI0
aI0
aI0
aI0
aI0
aI0
aI0
aI0
aa(lp296
I0
aI0
aI1
aI0
aI0
aI0
aI0
aI0
aI0
aI1
aa(lp297
I0
aI0
aI0
aI0
aI0
aI0
aI0
aI0
aI0
aI0
aa(lp298
I0
aI0
aI0
aI0
aI0
aI0
aI0
aI0
aI0
aI0
aa(lp299
I0
aI0
aI0
aI0
aI0
aI0
aI0
aI0
aI0
aI0
aa(lp300
I0
aI0
aI0
aI0
aI0
aI0
aI0
aI0
aI0
aI0
aa(lp301
I0
aI0
aI0
aI0
aI0
aI0
aI0
aI0
aI0
aI0
aa(lp302
I0
aI0
aI0
aI1
aI0
aI0
aI0
aI0
aI0
aI0
aassI25
(dp303
g2
I93
sg3
(lp304
(lp305
I1
aI1
aI0
aI1
aI1
aI1
aI1
aI1
aI1
aI1
aa(lp306
I1
aI1
aI1
aI1
aI1
aI1
aI1
aI1
aI1
aI1
aa(lp307
I1
aI1
aI1
aI1
aI1
aI1
aI1
aI1
aI1
aI1
aa(lp308
I0
aI1
aI1
aI1
aI1
aI1
aI1
aI1
aI1
aI0
aa(lp309
I1
aI1
aI1
aI1
aI1
aI1
aI1
aI1
aI1
aI1
aa(lp310
I1
aI1
aI1
aI1
aI0
aI1
aI1
aI1
aI1
aI1
aa(lp311
I0
aI1
aI1
aI1
aI1
aI1
aI1
aI1
aI1
aI1
aa(lp312
I1
aI1
aI1
aI1
aI1
aI1
aI1
aI1
aI1
aI1
aa(lp313
I1
aI1
aI1
aI0
aI1
aI1
aI1
aI0
aI1
aI1
aa(lp314
I1
aI1
aI1
aI1
aI1
aI1
aI1
aI1
aI1
aI1
aassI26
(dp315
g2
I82
sg3
(lp316
(lp317
I1
aI1
aI1
aI1
aI1
aI1
aI1
aI1
aI1
aI1
aa(lp318
I1
aI1
aI1
aI0
aI1
aI1
aI0
aI1
aI1
aI0
aa(lp319
I1
aI0
aI1
aI1
aI1
aI1
aI1
aI1
aI1
aI0
aa(lp320
I0
aI1
aI1
aI1
aI1
aI0
aI1
aI1
aI1
aI1
aa(lp321
I1
aI1
aI0
aI1
aI0
aI1
aI0
aI1
aI1
aI1
aa(lp322
I1
aI1
aI1
aI1
aI1
aI1
aI1
aI1
aI1
aI1
aa(lp323
I1
aI1
aI0
aI1
aI1
aI1
aI1
aI1
aI1
aI1
aa(lp324
I0
aI1
aI1
aI1
aI0
aI1
aI1
aI1
aI1
aI1
aa(lp325
I1
aI1
aI1
aI1
aI1
aI0
aI1
aI0
aI0
aI0
aa(lp326
I1
aI1
aI1
aI1
aI1
aI0
aI1
aI1
aI1
aI1
aassI27
(dp327
g2
I82
sg3
(lp328
(lp329
I1
aI1
aI1
aI1
aI1
aI1
aI0
aI1
aI1
aI1
aa(lp330
I1
aI1
aI1
aI0
aI0
aI0
aI0
aI1
aI1
aI1
aa(lp331
I1
aI1
aI1
aI1
aI1
aI1
aI1
aI0
aI1
aI1
aa(lp332
I1
aI1
aI1
aI0
aI1
aI1
aI1
aI1
aI0
aI1
aa(lp333
I1
aI1
aI1
aI1
aI1
aI1
aI1
aI1
aI1
aI1
aa(lp334
I1
aI1
aI0
aI0
aI1
aI1
aI1
aI1
aI0
aI1
aa(lp335
I1
aI1
aI0
aI1
aI1
aI1
aI1
aI1
aI1
aI1
aa(lp336
I1
aI0
aI1
aI0
aI1
aI1
aI1
aI1
aI1
aI1
aa(lp337
I1
aI1
aI1
aI1
aI1
aI1
aI1
aI1
aI1
aI1
aa(lp338
I1
aI0
aI1
aI1
aI0
aI0
aI1
aI1
aI1
aI0
aassI28
(dp339
g2
I64
sg3
(lp340
(lp341
I1
aI1
aI0
aI1
aI1
aI1
aI0
aI1
aI1
aI0
aa(lp342
I1
aI1
aI1
aI1
aI1
aI1
aI1
aI0
aI1
aI0
aa(lp343
I1
aI1
aI0
aI0
aI1
aI1
aI1
aI1
aI0
aI1
aa(lp344
I0
aI1
aI1
aI1
aI0
aI1
aI1
aI1
aI0
aI0
aa(lp345
I1
aI1
aI0
aI1
aI0
aI1
aI1
aI0
aI0
aI0
aa(lp346
I0
aI0
aI0
aI0
aI1
aI1
aI1
aI1
aI0
aI1
aa(lp347
I1
aI1
aI1
aI1
aI1
aI0
aI1
aI0
aI0
aI0
aa(lp348
I1
aI1
aI1
aI1
aI1
aI0
aI1
aI0
aI1
aI0
aa(lp349
I1
aI0
aI1
aI1
aI1
aI1
aI0
aI0
aI1
aI1
aa(lp350
I0
aI0
aI1
aI1
aI0
aI1
aI1
aI1
aI0
aI1
aassI29
(dp351
g2
I7
sg3
(lp352
(lp353
I0
aI0
aI0
aI0
aI0
aI0
aI0
aI0
aI0
aI0
aa(lp354
I0
aI0
aI0
aI1
aI0
aI0
aI0
aI0
aI0
aI0
aa(lp355
I1
aI0
aI0
aI0
aI0
aI0
aI0
aI0
aI0
aI0
aa(lp356
I0
aI0
aI0
aI0
aI0
aI0
aI0
aI0
aI0
aI1
aa(lp357
I0
aI0
aI0
aI0
aI0
aI0
aI0
aI0
aI0
aI1
aa(lp358
I0
aI0
aI0
aI0
aI0
aI0
aI0
aI0
aI0
aI0
aa(lp359
I1
aI0
aI0
aI0
aI0
aI0
aI0
aI0
aI0
aI0
aa(lp360
I0
aI0
aI0
aI0
aI0
aI0
aI0
aI0
aI0
aI0
aa(lp361
I0
aI0
aI0
aI0
aI0
aI0
aI0
aI0
aI0
aI0
aa(lp362
I0
aI0
aI0
aI0
aI1
aI0
aI0
aI1
aI0
aI0
aassI30
(dp363
g2
I70
sg3
(lp364
(lp365
I1
aI0
aI1
aI0
aI0
aI1
aI0
aI1
aI1
aI0
aa(lp366
I1
aI1
aI1
aI1
aI1
aI1
aI1
aI1
aI1
aI1
aa(lp367
I1
aI0
aI0
aI1
aI1
aI0
aI1
aI1
aI1
aI1
aa(lp368
I0
aI1
aI1
aI0
aI1
aI1
aI1
aI1
aI1
aI1
aa(lp369
I0
aI1
aI1
aI1
aI1
aI1
aI1
aI1
aI1
aI1
aa(lp370
I0
aI1
aI0
aI1
aI1
aI0
aI0
aI1
aI1
aI1
aa(lp371
I1
aI1
aI1
aI1
aI1
aI0
aI0
aI1
aI1
aI0
aa(lp372
I1
aI1
aI0
aI1
aI0
aI0
aI1
aI1
aI0
aI1
aa(lp373
I1
aI0
aI1
aI0
aI0
aI1
aI0
aI1
aI1
aI1
aa(lp374
I1
aI0
aI0
aI1
aI1
aI1
aI0
aI1
aI1
aI0
aassI31
(dp375
g2
I49
sg3
(lp376
(lp377
I1
aI0
aI1
aI1
aI1
aI1
aI1
aI0
aI1
aI0
aa(lp378
I0
aI1
aI0
aI1
aI0
aI1
aI0
aI1
aI1
aI0
aa(lp379
I1
aI0
aI0
aI0
aI1
aI0
aI0
aI0
aI1
aI1
aa(lp380
I1
aI0
aI1
aI0
aI0
aI0
aI0
aI1
aI0
aI1
aa(lp381
I1
aI0
aI0
aI1
aI0
aI0
aI1
aI1
aI1
aI0
aa(lp382
I1
aI1
aI1
aI1
aI1
aI0
aI0
aI1
aI1
aI0
aa(lp383
I0
aI0
aI1
aI0
aI0
aI1
aI0
aI0
aI1
aI0
aa(lp384
I1
aI0
aI1
aI1
aI1
aI1
aI1
aI0
aI1
aI1
aa(lp385
I0
aI0
aI1
aI0
aI1
aI1
aI1
aI0
aI0
aI0
aa(lp386
I1
aI0
aI0
aI0
aI1
aI0
aI0
aI0
aI0
aI0
aassI32
(dp387
g2
I95
sg3
(lp388
(lp389
I1
aI1
aI1
aI1
aI1
aI1
aI1
aI1
aI1
aI1
aa(lp390
I1
aI1
aI1
aI1
aI1
aI0
aI1
aI1
aI1
aI1
aa(lp391
I1
aI1
aI1
aI1
aI1
aI1
aI1
aI1
aI1
aI1
aa(lp392
I1
aI1
aI1
aI1
aI1
aI1
aI1
aI1
aI0
aI1
aa(lp393
I1
aI1
aI1
aI1
aI1
aI1
aI1
aI1
aI1
aI1
aa(lp394
I1
aI1
aI1
aI1
aI1
aI1
aI1
aI0
aI1
aI1
aa(lp395
I1
aI1
aI1
aI1
aI1
aI1
aI1
aI1
aI1
aI1
aa(lp396
I1
aI1
aI1
aI1
aI1
aI0
aI1
aI1
aI1
aI1
aa(lp397
I1
aI1
aI1
aI1
aI1
aI1
aI1
aI1
aI1
aI1
aa(lp398
I1
aI1
aI1
aI1
aI1
aI1
aI0
aI1
aI1
aI1
aassI33
(dp399
g2
I31
sg3
(lp400
(lp401
I0
aI0
aI1
aI0
aI0
aI0
aI0
aI0
aI0
aI1
aa(lp402
I1
aI0
aI1
aI0
aI0
aI1
aI1
aI1
aI0
aI0
aa(lp403
I0
aI1
aI0
aI0
aI1
aI0
aI0
aI1
aI1
aI1
aa(lp404
I0
aI0
aI0
aI1
aI0
aI1
aI0
aI0
aI1
aI0
aa(lp405
I0
aI1
aI0
aI1
aI0
aI1
aI0
aI1
aI0
aI1
aa(lp406
I0
aI0
aI1
aI0
aI0
aI0
aI1
aI0
aI0
aI0
aa(lp407
I0
aI0
aI0
aI0
aI1
aI0
aI0
aI1
aI1
aI0
aa(lp408
I0
aI0
aI0
aI0
aI0
aI0
aI0
aI0
aI1
aI0
aa(lp409
I0
aI0
aI0
aI0
aI0
aI0
aI0
aI0
aI0
aI0
aa(lp410
I0
aI0
aI0
aI1
aI0
aI1
aI0
aI1
aI1
aI1
aassI34
(dp411
g2
I12
sg3
(lp412
(lp413
I0
aI0
aI0
aI0
aI0
aI0
aI0
aI0
aI0
aI0
aa(lp414
I0
aI0
aI0
aI0
aI1
aI1
aI0
aI0
aI0
aI0
aa(lp415
I0
aI0
aI0
aI0
aI0
aI0
aI0
aI0
aI0
aI0
aa(lp416
I0
aI1
aI0
aI0
aI0
aI0
aI0
aI1
aI0
aI0
aa(lp417
I0
aI0
aI1
aI0
aI0
aI0
aI0
aI0
aI0
aI0
aa(lp418
I0
aI0
aI0
aI1
aI0
aI0
aI0
aI0
aI0
aI0
aa(lp419
I0
aI0
aI0
aI0
aI0
aI0
aI0
aI0
aI0
aI0
aa(lp420
I0
aI0
aI0
aI0
aI0
aI0
aI1
aI0
aI0
aI0
aa(lp421
I0
aI0
aI0
aI0
aI0
aI0
aI0
aI1
aI1
aI1
aa(lp422
I1
aI0
aI0
aI0
aI1
aI0
aI0
aI0
aI0
aI0
aassI35
(dp423
g2
I51
sg3
(lp424
(lp425
I1
aI1
aI1
aI1
aI1
aI0
aI0
aI1
aI1
aI1
aa(lp426
I1
aI0
aI1
aI0
aI1
aI1
aI1
aI0
aI0
aI1
aa(lp427
I0
aI1
aI0
aI0
aI0
aI1
aI0
aI1
aI1
aI1
aa(lp428
I1
aI1
aI0
aI1
aI1
aI0
aI0
aI0
aI1
aI0
aa(lp429
I1
aI0
aI1
aI0
aI0
aI0
aI0
aI0
aI0
aI1
aa(lp430
I0
aI1
aI1
aI1
aI0
aI1
aI0
aI0
aI0
aI0
aa(lp431
I1
aI0
aI0
aI0
aI1
aI0
aI0
aI1
aI0
aI1
aa(lp432
I0
aI0
aI1
aI0
aI1
aI0
aI0
aI0
aI1
aI1
aa(lp433
I1
aI0
aI0
aI0
aI1
aI1
aI1
aI0
aI1
aI1
aa(lp434
I1
aI1
aI0
aI1
aI0
aI1
aI1
aI1
aI0
aI0
aassI36
(dp435
g2
I1
sg3
(lp436
(lp437
I0
aI0
aI0
aI0
aI0
aI0
aI0
aI0
aI0
aI0
aa(lp438
I0
aI0
aI0
aI0
aI0
aI0
aI0
aI0
aI0
aI0
aa(lp439
I0
aI0
aI0
aI0
aI0
aI0
aI0
aI0
aI0
aI0
aa(lp440
I0
aI0
aI0
aI0
aI0
aI0
aI0
aI0
aI0
aI0
aa(lp441
I0
aI0
aI0
aI0
aI0
aI0
aI0
aI0
aI0
aI0
aa(lp442
I0
aI0
aI0
aI0
aI0
aI0
aI0
aI0
aI0
aI0
aa(lp443
I0
aI0
aI0
aI0
aI0
aI0
aI0
aI0
aI0
aI0
aa(lp444
I0
aI0
aI0
aI0
aI0
aI0
aI0
aI0
aI0
aI0
aa(lp445
I0
aI0
aI0
aI0
aI0
aI0
aI0
aI0
aI0
aI0
aa(lp446
I0
aI0
aI0
aI1
aI0
aI0
aI0
aI0
aI0
aI0
aassI37
(dp447
g2
I86
sg3
(lp448
(lp449
I1
aI1
aI1
aI1
aI1
aI1
aI1
aI1
aI1
aI1
aa(lp450
I1
aI1
aI1
aI1
aI1
aI1
aI1
aI1
aI1
aI1
aa(lp451
I0
aI1
aI0
aI1
aI1
aI1
aI1
aI1
aI1
aI1
aa(lp452
I0
aI1
aI1
aI1
aI0
aI1
aI1
aI1
aI1
aI1
aa(lp453
I1
aI1
aI1
aI1
aI1
aI1
aI1
aI1
aI1
aI1
aa(lp454
I1
aI1
aI1
aI1
aI1
aI1
aI1
aI1
aI1
aI1
aa(lp455
I1
aI1
aI0
aI1
aI1
aI1
aI1
aI0
aI1
aI0
aa(lp456
I0
aI1
aI0
aI1
aI0
aI1
aI1
aI1
aI0
aI1
aa(lp457
I1
aI1
aI1
aI1
aI1
aI1
aI0
aI1
aI1
aI1
aa(lp458
I0
aI1
aI1
aI1
aI0
aI1
aI1
aI1
aI1
aI1
aassI38
(dp459
g2
I8
sg3
(lp460
(lp461
I0
aI0
aI0
aI0
aI0
aI0
aI0
aI0
aI0
aI0
aa(lp462
I0
aI0
aI0
aI0
aI0
aI0
aI0
aI0
aI0
aI0
aa(lp463
I0
aI0
aI0
aI0
aI1
aI0
aI0
aI0
aI0
aI1
aa(lp464
I0
aI0
aI0
aI0
aI0
aI0
aI0
aI1
aI0
aI0
aa(lp465
I0
aI0
aI0
aI0
aI0
aI0
aI0
aI0
aI0
aI0
aa(lp466
I0
aI0
aI0
aI0
aI0
aI0
aI0
aI0
aI0
aI0
aa(lp467
I0
aI0
aI1
aI0
aI0
aI0
aI0
aI0
aI0
aI0
aa(lp468
I0
aI0
aI0
aI1
aI0
aI0
aI0
aI0
aI0
aI0
aa(lp469
I0
aI0
aI0
aI0
aI0
aI0
aI1
aI0
aI0
aI0
aa(lp470
I0
aI0
aI1
aI0
aI0
aI0
aI0
aI0
aI1
aI0
aassI39
(dp471
g2
I100
sg3
(lp472
(lp473
I1
aI1
aI1
aI1
aI1
aI1
aI1
aI1
aI1
aI1
aa(lp474
I1
aI1
aI1
aI1
aI1
aI1
aI1
aI1
aI1
aI1
aa(lp475
I1
aI1
aI1
aI1
aI1
aI1
aI1
aI1
aI1
aI1
aa(lp476
I1
aI1
aI1
aI1
aI1
aI1
aI1
aI1
aI1
aI1
aa(lp477
I1
aI1
aI1
aI1
aI1
aI1
aI1
aI1
aI1
aI1
aa(lp478
I1
aI1
aI1
aI1
aI1
aI1
aI1
aI1
aI1
aI1
aa(lp479
I1
aI1
aI1
aI1
aI1
aI1
aI1
aI1
aI1
aI1
aa(lp480
I1
aI1
aI1
aI1
aI1
aI1
aI1
aI1
aI1
aI1
aa(lp481
I1
aI1
aI1
aI1
aI1
aI1
aI1
aI1
aI1
aI1
aa(lp482
I1
aI1
aI1
aI1
aI1
aI1
aI1
aI1
aI1
aI1
aassI40
(dp483
g2
I26
sg3
(lp484
(lp485
I0
aI0
aI0
aI0
aI0
aI0
aI0
aI0
aI0
aI0
aa(lp486
I1
aI1
aI0
aI0
aI0
aI0
aI0
aI0
aI0
aI0
aa(lp487
I1
aI1
aI0
aI0
aI1
aI0
aI1
aI1
aI0
aI0
aa(lp488
I1
aI0
aI0
aI1
aI0
aI0
aI1
aI0
aI0
aI0
aa(lp489
I1
aI1
aI1
aI1
aI0
aI1
aI0
aI1
aI0
aI0
aa(lp490
I1
aI0
aI0
aI0
aI0
aI0
aI0
aI0
aI0
aI1
aa(lp491
I1
aI0
aI1
aI0
aI0
aI0
aI1
aI0
aI1
aI0
aa(lp492
I1
aI0
aI0
aI0
aI0
aI0
aI0
aI0
aI0
aI0
aa(lp493
I0
aI0
aI1
aI0
aI0
aI0
aI0
aI1
aI1
aI0
aa(lp494
I0
aI0
aI0
aI0
aI0
aI0
aI0
aI0
aI0
aI0
aassI41
(dp495
g2
I28
sg3
(lp496
(lp497
I0
aI0
aI0
aI1
aI1
aI0
aI0
aI1
aI0
aI0
aa(lp498
I0
aI0
aI0
aI1
aI1
aI0
aI0
aI0
aI1
aI0
aa(lp499
I0
aI1
aI0
aI0
aI0
aI0
aI1
aI0
aI0
aI0
aa(lp500
I0
aI0
aI0
aI0
aI1
aI0
aI0
aI0
aI0
aI1
aa(lp501
I0
aI1
aI0
aI0
aI0
aI0
aI0
aI0
aI0
aI0
aa(lp502
I0
aI0
aI0
aI0
aI0
aI1
aI0
aI1
aI1
aI0
aa(lp503
I1
aI1
aI0
aI0
aI1
aI0
aI0
aI1
aI1
aI0
aa(lp504
I0
aI0
aI0
aI0
aI0
aI0
aI0
aI0
aI1
aI0
aa(lp505
I0
aI0
aI0
aI0
aI0
aI0
aI1
aI1
aI0
aI1
aa(lp506
I1
aI0
aI1
aI1
aI0
aI0
aI0
aI0
aI1
aI1
aassI42
(dp507
g2
I98
sg3
(lp508
(lp509
I1
aI1
aI1
aI1
aI1
aI1
aI1
aI1
aI1
aI1
aa(lp510
I1
aI1
aI1
aI1
aI1
aI1
aI1
aI1
aI1
aI1
aa(lp511
I1
aI1
aI1
aI1
aI1
aI1
aI0
aI1
aI1
aI1
aa(lp512
I1
aI1
aI1
aI1
aI1
aI1
aI1
aI1
aI1
aI1
aa(lp513
I1
aI1
aI1
aI1
aI1
aI1
aI1
aI1
aI1
aI1
aa(lp514
I1
aI0
aI1
aI1
aI1
aI1
aI1
aI1
aI1
aI1
aa(lp515
I1
aI1
aI1
aI1
aI1
aI1
aI1
aI1
aI1
aI1
aa(lp516
I1
aI1
aI1
aI1
aI1
aI1
aI1
aI1
aI1
aI1
aa(lp517
I1
aI1
aI1
aI1
aI1
aI1
aI1
aI1
aI1
aI1
aa(lp518
I1
aI1
aI1
aI1
aI1
aI1
aI1
aI1
aI1
aI1
aassI43
(dp519
g2
I41
sg3
(lp520
(lp521
I1
aI1
aI1
aI1
aI0
aI1
aI1
aI1
aI1
aI0
aa(lp522
I0
aI0
aI0
aI0
aI0
aI0
aI0
aI1
aI0
aI1
aa(lp523
I0
aI0
aI0
aI0
aI0
aI0
aI0
aI0
aI0
aI0
aa(lp524
I1
aI0
aI1
aI1
aI1
aI0
aI0
aI0
aI0
aI0
aa(lp525
I1
aI1
aI1
aI0
aI0
aI1
aI0
aI1
aI1
aI1
aa(lp526
I1
aI0
aI0
aI1
aI0
aI1
aI0
aI0
aI1
aI1
aa(lp527
I0
aI1
aI1
aI0
aI0
aI0
aI0
aI1
aI0
aI0
aa(lp528
I0
aI0
aI0
aI1
aI0
aI0
aI0
aI0
aI1
aI1
aa(lp529
I1
aI0
aI0
aI0
aI0
aI1
aI1
aI1
aI1
aI1
aa(lp530
I0
aI0
aI1
aI1
aI1
aI0
aI0
aI0
aI0
aI0
aassI44
(dp531
g2
I28
sg3
(lp532
(lp533
I0
aI1
aI0
aI0
aI0
aI0
aI0
aI1
aI0
aI0
aa(lp534
I1
aI0
aI0
aI0
aI1
aI0
aI1
aI0
aI0
aI0
aa(lp535
I1
aI0
aI1
aI0
aI0
aI0
aI0
aI0
aI0
aI1
aa(lp536
I0
aI0
aI1
aI0
aI1
aI0
aI0
aI0
aI0
aI1
aa(lp537
I0
aI0
aI0
aI0
aI1
aI0
aI0
aI0
aI0
aI1
aa(lp538
I0
aI0
aI0
aI0
aI0
aI1
aI0
aI1
aI1
aI1
aa(lp539
I1
aI0
aI0
aI0
aI0
aI1
aI0
aI0
aI0
aI1
aa(lp540
I0
aI1
aI1
aI0
aI1
aI0
aI0
aI0
aI1
aI0
aa(lp541
I0
aI1
aI0
aI0
aI0
aI1
aI0
aI0
aI0
aI0
aa(lp542
I0
aI0
aI0
aI1
aI0
aI1
aI0
aI0
aI0
aI0
aassI45
(dp543
g2
I31
sg3
(lp544
(lp545
I0
aI0
aI0
aI0
aI0
aI0
aI1
aI0
aI1
aI0
aa(lp546
I0
aI0
aI1
aI0
aI0
aI1
aI0
aI1
aI0
aI0
aa(lp547
I0
aI1
aI0
aI0
aI0
aI1
aI0
aI0
aI1
aI0
aa(lp548
I0
aI0
aI0
aI0
aI1
aI1
aI0
aI1
aI1
aI0
aa(lp549
I1
aI0
aI0
aI1
aI0
aI0
aI1
aI0
aI0
aI1
aa(lp550
I1
aI0
aI0
aI0
aI0
aI0
aI0
aI0
aI1
aI1
aa(lp551
I0
aI0
aI0
aI0
aI0
aI0
aI0
aI0
aI0
aI0
aa(lp552
I1
aI0
aI1
aI0
aI1
aI0
aI1
aI1
aI0
aI0
aa(lp553
I0
aI1
aI0
aI0
aI0
aI0
aI0
aI0
aI0
aI1
aa(lp554
I1
aI1
aI0
aI1
aI0
aI0
aI0
aI1
aI1
aI0
aassI46
(dp555
g2
I36
sg3
(lp556
(lp557
I1
aI0
aI0
aI0
aI0
aI0
aI1
aI1
aI0
aI1
aa(lp558
I1
aI1
aI1
aI0
aI0
aI0
aI0
aI1
aI0
aI0
aa(lp559
I1
aI1
aI1
aI0
aI1
aI0
aI0
aI1
aI1
aI0
aa(lp560
I0
aI1
aI0
aI0
aI0
aI1
aI0
aI1
aI1
aI0
aa(lp561
I1
aI0
aI0
aI0
aI1
aI0
aI0
aI0
aI0
aI0
aa(lp562
I0
aI1
aI0
aI1
aI0
aI1
aI1
aI0
aI1
aI0
aa(lp563
I0
aI0
aI0
aI0
aI0
aI0
aI0
aI0
aI1
aI1
aa(lp564
I0
aI0
aI0
aI0
aI0
aI0
aI1
aI1
aI0
aI1
aa(lp565
I0
aI0
aI1
aI1
aI0
aI0
aI0
aI1
aI0
aI0
aa(lp566
I0
aI0
aI0
aI1
aI1
aI0
aI0
aI0
aI1
aI0
aassI47
(dp567
g2
I63
sg3
(lp568
(lp569
I1
aI0
aI1
aI1
aI1
aI0
aI1
aI0
aI1
aI1
aa(lp570
I1
aI0
aI1
aI1
aI1
aI1
aI0
aI1
aI1
aI0
aa(lp571
I1
aI1
aI1
aI0
aI1
aI1
aI1
aI0
aI0
aI0
aa(lp572
I1
aI1
aI1
aI0
aI1
aI0
aI0
aI1
aI1
aI0
aa(lp573
I0
aI1
aI0
aI1
aI1
aI1
aI1
aI1
aI1
aI1
aa(lp574
I0
aI1
aI1
aI1
aI1
aI1
aI0
aI0
aI0
aI0
aa(lp575
I1
aI1
aI1
aI1
aI0
aI0
aI0
aI1
aI0
aI1
aa(lp576
I0
aI1
aI0
aI1
aI1
aI1
aI0
aI1
aI0
aI0
aa(lp577
I1
aI1
aI1
aI1
aI1
aI0
aI0
aI0
aI1
aI1
aa(lp578
I1
aI0
aI1
aI1
aI0
aI0
aI1
aI1
aI0
aI1
aassI48
(dp579
g2
I48
sg3
(lp580
(lp581
I1
aI0
aI0
aI1
aI0
aI0
aI1
aI0
aI0
aI1
aa(lp582
I0
aI1
aI1
aI1
aI1
aI1
aI1
aI1
aI0
aI1
aa(lp583
I1
aI1
aI0
aI1
aI1
aI1
aI1
aI1
aI0
aI1
aa(lp584
I0
aI0
aI1
aI0
aI1
aI0
aI0
aI1
aI0
aI0
aa(lp585
I1
aI0
aI1
aI1
aI0
aI1
aI1
aI0
aI1
aI1
aa(lp586
I0
aI0
aI0
aI1
aI0
aI0
aI0
aI0
aI0
aI0
aa(lp587
I0
aI1
aI0
aI1
aI0
aI0
aI0
aI0
aI1
aI0
aa(lp588
I0
aI1
aI1
aI0
aI1
aI1
aI0
aI1
aI0
aI1
aa(lp589
I0
aI1
aI0
aI0
aI1
aI1
aI1
aI0
aI0
aI0
aa(lp590
I0
aI1
aI0
aI0
aI0
aI0
aI0
aI1
aI1
aI1
aassI49
(dp591
g2
I94
sg3
(lp592
(lp593
I1
aI1
aI1
aI1
aI0
aI1
aI1
aI1
aI1
aI1
aa(lp594
I1
aI1
aI1
aI1
aI1
aI1
aI1
aI1
aI1
aI1
aa(lp595
I1
aI1
aI1
aI1
aI1
aI1
aI0
aI1
aI1
aI1
aa(lp596
I1
aI1
aI1
aI1
aI1
aI1
aI1
aI1
aI1
aI1
aa(lp597
I0
aI1
aI1
aI1
aI1
aI1
aI1
aI1
aI1
aI1
aa(lp598
I1
aI1
aI1
aI1
aI1
aI1
aI1
aI1
aI1
aI1
aa(lp599
I0
aI1
aI1
aI1
aI1
aI1
aI1
aI1
aI1
aI1
aa(lp600
I1
aI1
aI1
aI1
aI1
aI1
aI1
aI0
aI1
aI1
aa(lp601
I1
aI1
aI1
aI1
aI1
aI0
aI1
aI1
aI1
aI1
aa(lp602
I1
aI1
aI1
aI1
aI1
aI1
aI1
aI1
aI1
aI1
aassI50
(dp603
g2
I72
sg3
(lp604
(lp605
I1
aI1
aI0
aI1
aI1
aI1
aI1
aI0
aI1
aI1
aa(lp606
I1
aI0
aI1
aI0
aI0
aI1
aI1
aI1
aI1
aI1
aa(lp607
I1
aI1
aI1
aI1
aI0
aI1
aI1
aI1
aI1
aI1
aa(lp608
I0
aI0
aI1
aI0
aI1
aI1
aI0
aI0
aI1
aI0
aa(lp609
I1
aI0
aI0
aI1
aI1
aI0
aI1
aI0
aI1
aI1
aa(lp610
I1
aI1
aI1
aI1
aI1
aI0
aI1
aI0
aI1
aI1
aa(lp611
I1
aI1
aI1
aI1
aI0
aI1
aI1
aI1
aI0
aI1
aa(lp612
I1
aI0
aI1
aI1
aI1
aI1
aI1
aI1
aI1
aI1
aa(lp613
I0
aI1
aI1
aI0
aI1
aI1
aI1
aI1
aI1
aI0
aa(lp614
I1
aI1
aI0
aI1
aI1
aI1
aI0
aI1
aI0
aI0
aassI51
(dp615
g2
I55
sg3
(lp616
(lp617
I0
aI0
aI0
aI0
aI0
aI1
aI1
aI1
aI0
aI1
aa(lp618
I1
aI0
aI0
aI1
aI0
aI0
aI0
aI0
aI0
aI0
aa(lp619
I0
aI1
aI1
aI0
aI1
aI0
aI1
aI1
aI0
aI1
aa(lp620
I1
aI1
aI1
aI0
aI1
aI0
aI1
aI0
aI0
aI1
aa(lp621
I0
aI1
aI1
aI1
aI1
aI1
aI1
aI0
aI0
aI0
aa(lp622
I1
aI1
aI1
aI1
aI1
aI1
aI1
aI0
aI1
aI1
aa(lp623
I1
aI1
aI0
aI0
aI0
aI1
aI1
aI0
aI1
aI0
aa(lp624
I0
aI1
aI1
aI0
aI1
aI0
aI1
aI1
aI1
aI1
aa(lp625
I0
aI0
aI1
aI0
aI0
aI0
aI1
aI1
aI1
aI0
aa(lp626
I1
aI0
aI1
aI0
aI0
aI1
aI1
aI1
aI1
aI0
aassI52
(dp627
g2
I21
sg3
(lp628
(lp629
I0
aI1
aI1
aI0
aI0
aI0
aI0
aI0
aI1
aI0
aa(lp630
I1
aI1
aI0
aI0
aI1
aI0
aI1
aI0
aI0
aI0
aa(lp631
I0
aI1
aI0
aI0
aI1
aI0
aI0
aI1
aI0
aI1
aa(lp632
I0
aI0
aI0
aI0
aI0
aI0
aI0
aI0
aI0
aI0
aa(lp633
I1
aI0
aI0
aI0
aI0
aI1
aI0
aI0
aI0
aI0
aa(lp634
I0
aI0
aI0
aI0
aI0
aI0
aI0
aI0
aI0
aI0
aa(lp635
I0
aI0
aI0
aI0
aI0
aI1
aI0
aI0
aI0
aI1
aa(lp636
I0
aI0
aI0
aI1
aI0
aI0
aI0
aI0
aI0
aI0
aa(lp637
I1
aI0
aI1
aI0
aI1
aI0
aI0
aI1
aI0
aI0
aa(lp638
I0
aI1
aI0
aI0
aI0
aI0
aI0
aI0
aI0
aI0
aassI53
(dp639
g2
I14
sg3
(lp640
(lp641
I0
aI0
aI0
aI0
aI0
aI0
aI0
aI0
aI0
aI1
aa(lp642
I0
aI0
aI1
aI0
aI0
aI0
aI0
aI0
aI0
aI0
aa(lp643
I0
aI0
aI0
aI0
aI0
aI0
aI0
aI0
aI0
aI0
aa(lp644
I0
aI0
aI0
aI0
aI0
aI0
aI1
aI0
aI0
aI0
aa(lp645
I1
aI0
aI0
aI0
aI0
aI0
aI0
aI0
aI0
aI0
aa(lp646
I0
aI1
aI0
aI0
aI0
aI0
aI1
aI0
aI0
aI0
aa(lp647
I0
aI0
aI0
aI0
aI0
aI1
aI1
aI0
aI0
aI0
aa(lp648
I0
aI0
aI0
aI0
aI0
aI0
aI1
aI0
aI0
aI0
aa(lp649
I1
aI0
aI1
aI0
aI0
aI0
aI0
aI0
aI0
aI1
aa(lp650
I0
aI0
aI1
aI0
aI0
aI0
aI0
aI0
aI1
aI0
aassI54
(dp651
g2
I41
sg3
(lp652
(lp653
I1
aI1
aI0
aI1
aI0
aI0
aI0
aI0
aI0
aI1
aa(lp654
I0
aI0
aI0
aI1
aI0
aI0
aI0
aI1
aI0
aI0
aa(lp655
I0
aI0
aI1
aI1
aI0
aI0
aI0
aI0
aI1
aI0
aa(lp656
I0
aI0
aI0
aI0
aI1
aI0
aI1
aI0
aI1
aI1
aa(lp657
I0
aI1
aI1
aI0
aI0
aI1
aI0
aI1
aI0
aI1
aa(lp658
I0
aI0
aI1
aI1
aI0
aI0
aI0
aI1
aI1
aI1
aa(lp659
I0
aI0
aI1
aI1
aI1
aI0
aI0
aI0
aI1
aI0
aa(lp660
I1
aI0
aI0
aI1
aI1
aI1
aI1
aI1
aI1
aI0
aa(lp661
I0
aI1
aI1
aI1
aI0
aI0
aI1
aI0
aI0
aI0
aa(lp662
I0
aI0
aI0
aI1
aI1
aI0
aI0
aI1
aI0
aI0
aassI55
(dp663
g2
I81
sg3
(lp664
(lp665
I1
aI1
aI1
aI1
aI1
aI1
aI1
aI1
aI1
aI1
aa(lp666
I1
aI1
aI1
aI1
aI1
aI1
aI1
aI1
aI1
aI1
aa(lp667
I1
aI1
aI1
aI1
aI1
aI1
aI1
aI1
aI0
aI0
aa(lp668
I0
aI1
aI1
aI0
aI1
aI1
aI1
aI1
aI0
aI1
aa(lp669
I0
aI0
aI1
aI1
aI1
aI1
aI1
aI1
aI1
aI1
aa(lp670
I1
aI1
aI1
aI1
aI0
aI1
aI0
aI1
aI0
aI0
aa(lp671
I1
aI1
aI1
aI1
aI1
aI1
aI1
aI1
aI0
aI1
aa(lp672
I0
aI1
aI1
aI1
aI1
aI1
aI1
aI1
aI1
aI0
aa(lp673
I1
aI0
aI1
aI1
aI1
aI0
aI1
aI1
aI1
aI1
aa(lp674
I1
aI1
aI1
aI0
aI1
aI1
aI0
aI1
aI1
aI0
aassI56
(dp675
g2
I74
sg3
(lp676
(lp677
I0
aI0
aI0
aI0
aI1
aI1
aI0
aI1
aI1
aI0
aa(lp678
I1
aI1
aI1
aI1
aI1
aI1
aI1
aI1
aI1
aI0
aa(lp679
I1
aI1
aI1
aI1
aI1
aI1
aI0
aI1
aI1
aI0
aa(lp680
I1
aI1
aI1
aI1
aI1
aI1
aI0
aI1
aI1
aI1
aa(lp681
I1
aI1
aI1
aI1
aI1
aI1
aI1
aI1
aI0
aI1
aa(lp682
I0
aI1
aI1
aI1
aI1
aI1
aI1
aI0
aI0
aI0
aa(lp683
I1
aI1
aI1
aI1
aI1
aI0
aI1
aI0
aI1
aI1
aa(lp684
I1
aI1
aI0
aI1
aI1
aI1
aI1
aI1
aI0
aI1
aa(lp685
I0
aI1
aI0
aI1
aI0
aI1
aI0
aI1
aI1
aI1
aa(lp686
I1
aI0
aI1
aI1
aI1
aI0
aI1
aI1
aI1
aI0
aassI57
(dp687
g2
I31
sg3
(lp688
(lp689
I1
aI1
aI0
aI1
aI1
aI0
aI0
aI0
aI0
aI0
aa(lp690
I0
aI0
aI0
aI1
aI0
aI0
aI0
aI0
aI0
aI0
aa(lp691
I0
aI1
aI0
aI0
aI0
aI0
aI1
aI0
aI1
aI1
aa(lp692
I0
aI0
aI1
aI0
aI1
aI1
aI0
aI1
aI1
aI0
aa(lp693
I0
aI1
aI0
aI0
aI1
aI0
aI0
aI0
aI0
aI0
aa(lp694
I1
aI0
aI0
aI0
aI0
aI0
aI0
aI0
aI1
aI0
aa(lp695
I0
aI0
aI0
aI0
aI0
aI0
aI0
aI0
aI0
aI0
aa(lp696
I0
aI0
aI0
aI0
aI1
aI1
aI0
aI0
aI1
aI1
aa(lp697
I0
aI0
aI1
aI0
aI0
aI1
aI1
aI1
aI1
aI0
aa(lp698
I1
aI0
aI1
aI0
aI0
aI0
aI0
aI1
aI1
aI0
aassI58
(dp699
g2
I13
sg3
(lp700
(lp701
I0
aI0
aI0
aI0
aI0
aI0
aI1
aI0
aI1
aI0
aa(lp702
I0
aI1
aI0
aI0
aI0
aI0
aI0
aI0
aI0
aI0
aa(lp703
I0
aI0
aI0
aI0
aI0
aI0
aI0
aI1
aI0
aI0
aa(lp704
I0
aI0
aI0
aI0
aI0
aI1
aI0
aI0
aI0
aI0
aa(lp705
I0
aI0
aI0
aI0
aI0
aI0
aI0
aI0
aI0
aI0
aa(lp706
I0
aI0
aI0
aI0
aI0
aI0
aI0
aI0
aI1
aI0
aa(lp707
I0
aI1
aI0
aI1
aI0
aI1
aI0
aI0
aI0
aI0
aa(lp708
I0
aI1
aI1
aI0
aI0
aI0
aI0
aI0
aI0
aI0
aa(lp709
I0
aI0
aI0
aI0
aI0
aI0
aI0
aI0
aI0
aI0
aa(lp710
I0
aI0
aI0
aI0
aI1
aI0
aI1
aI0
aI0
aI0
aassI59
(dp711
g2
I96
sg3
(lp712
(lp713
I1
aI1
aI1
aI1
aI1
aI1
aI1
aI1
aI1
aI1
aa(lp714
I1
aI1
aI1
aI1
aI1
aI1
aI1
aI1
aI1
aI1
aa(lp715
I1
aI1
aI1
aI1
aI1
aI1
aI1
aI1
aI1
aI1
aa(lp716
I0
aI1
aI1
aI1
aI1
aI1
aI1
aI1
aI1
aI1
aa(lp717
I1
aI1
aI1
aI1
aI1
aI1
aI1
aI1
aI1
aI1
aa(lp718
I1
aI1
aI1
aI1
aI1
aI1
aI1
aI1
aI1
aI1
aa(lp719
I1
aI1
aI1
aI1
aI1
aI1
aI1
aI0
aI1
aI1
aa(lp720
I1
aI1
aI1
aI0
aI1
aI1
aI1
aI1
aI1
aI1
aa(lp721
I1
aI1
aI1
aI0
aI1
aI1
aI1
aI1
aI1
aI1
aa(lp722
I1
aI1
aI1
aI1
aI1
aI1
aI1
aI1
aI1
aI1
aassI60
(dp723
g2
I84
sg3
(lp724
(lp725
I1
aI1
aI1
aI0
aI0
aI0
aI1
aI1
aI1
aI1
aa(lp726
I1
aI1
aI1
aI1
aI1
aI1
aI1
aI1
aI1
aI1
aa(lp727
I1
aI1
aI1
aI1
aI1
aI1
aI0
aI1
aI1
aI1
aa(lp728
I1
aI1
aI1
aI1
aI0
aI1
aI0
aI1
aI1
aI1
aa(lp729
I1
aI1
aI1
aI0
aI1
aI0
aI1
aI1
aI1
aI1
aa(lp730
I1
aI1
aI1
aI1
aI1
aI1
aI1
aI0
aI1
aI1
aa(lp731
I1
aI1
aI0
aI1
aI1
aI1
aI1
aI1
aI1
aI1
aa(lp732
I1
aI0
aI0
aI1
aI1
aI1
aI1
aI1
aI1
aI1
aa(lp733
I0
aI1
aI1
aI1
aI1
aI1
aI1
aI1
aI0
aI0
aa(lp734
I1
aI1
aI1
aI1
aI0
aI1
aI1
aI1
aI1
aI1
aassI61
(dp735
g2
I40
sg3
(lp736
(lp737
I0
aI1
aI0
aI0
aI1
aI1
aI0
aI1
aI0
aI1
aa(lp738
I1
aI0
aI1
aI0
aI0
aI1
aI1
aI1
aI1
aI1
aa(lp739
I1
aI0
aI0
aI0
aI1
aI0
aI1
aI0
aI0
aI0
aa(lp740
I0
aI1
aI1
aI0
aI0
aI0
aI1
aI0
aI0
aI0
aa(lp741
I0
aI0
aI0
aI1
aI0
aI1
aI0
aI1
aI1
aI0
aa(lp742
I0
aI1
aI1
aI0
aI1
aI0
aI0
aI0
aI0
aI1
aa(lp743
I1
aI0
aI1
aI0
aI0
aI0
aI0
aI0
aI0
aI0
aa(lp744
I0
aI0
aI1
aI0
aI1
aI0
aI1
aI0
aI1
aI1
aa(lp745
I1
aI0
aI1
aI0
aI0
aI0
aI1
aI0
aI1
aI1
aa(lp746
I1
aI0
aI0
aI1
aI0
aI0
aI0
aI0
aI0
aI0
aassI62
(dp747
g2
I100
sg3
(lp748
(lp749
I1
aI1
aI1
aI1
aI1
aI1
aI1
aI1
aI1
aI1
aa(lp750
I1
aI1
aI1
aI1
aI1
aI1
aI1
aI1
aI1
aI1
aa(lp751
I1
aI1
aI1
aI1
aI1
aI1
aI1
aI1
aI1
aI1
aa(lp752
I1
aI1
aI1
aI1
aI1
aI1
aI1
aI1
aI1
aI1
aa(lp753
I1
aI1
aI1
aI1
aI1
aI1
aI1
aI1
aI1
aI1
aa(lp754
I1
aI1
aI1
aI1
aI1
aI1
aI1
aI1
aI1
aI1
aa(lp755
I1
aI1
aI1
aI1
aI1
aI1
aI1
aI1
aI1
aI1
aa(lp756
I1
aI1
aI1
aI1
aI1
aI1
aI1
aI1
aI1
aI1
aa(lp757
I1
aI1
aI1
aI1
aI1
aI1
aI1
aI1
aI1
aI1
aa(lp758
I1
aI1
aI1
aI1
aI1
aI1
aI1
aI1
aI1
aI1
aassI63
(dp759
g2
I13
sg3
(lp760
(lp761
I0
aI0
aI0
aI0
aI0
aI0
aI0
aI0
aI1
aI0
aa(lp762
I0
aI0
aI0
aI0
aI0
aI0
aI0
aI0
aI0
aI0
aa(lp763
I0
aI0
aI0
aI0
aI0
aI0
aI0
aI0
aI0
aI0
aa(lp764
I0
aI0
aI0
aI0
aI0
aI0
aI0
aI0
aI1
aI0
aa(lp765
I0
aI0
aI0
aI0
aI1
aI1
aI0
aI0
aI0
aI0
aa(lp766
I0
aI0
aI0
aI0
aI0
aI0
aI1
aI0
aI0
aI0
aa(lp767
I0
aI0
aI0
aI0
aI1
aI0
aI0
aI0
aI0
aI0
aa(lp768
I0
aI0
aI0
aI0
aI0
aI0
aI0
aI0
aI0
aI0
aa(lp769
I0
aI0
aI1
aI0
aI0
aI0
aI0
aI0
aI0
aI0
aa(lp770
I0
aI1
aI0
aI1
aI1
aI1
aI0
aI1
aI0
aI1
aassI64
(dp771
g2
I93
sg3
(lp772
(lp773
I0
aI1
aI1
aI1
aI0
aI1
aI1
aI1
aI1
aI1
aa(lp774
I1
aI1
aI1
aI1
aI1
aI1
aI1
aI1
aI1
aI1
aa(lp775
I1
aI1
aI1
aI1
aI1
aI1
aI1
aI1
aI1
aI0
aa(lp776
I0
aI1
aI1
aI1
aI1
aI1
aI1
aI1
aI1
aI1
aa(lp777
I1
aI1
aI1
aI1
aI1
aI1
aI1
aI1
aI1
aI0
aa(lp778
I1
aI1
aI1
aI1
aI1
aI1
aI1
aI1
aI1
aI1
aa(lp779
I1
aI1
aI1
aI1
aI1
aI1
aI1
aI1
aI1
aI1
aa(lp780
I1
aI1
aI1
aI1
aI1
aI1
aI1
aI1
aI1
aI1
aa(lp781
I0
aI1
aI1
aI1
aI1
aI1
aI1
aI1
aI1
aI1
aa(lp782
I1
aI1
aI1
aI1
aI1
aI1
aI1
aI1
aI0
aI1
aassI65
(dp783
g2
I58
sg3
(lp784
(lp785
I1
aI1
aI0
aI0
aI0
aI0
aI0
aI1
aI1
aI0
aa(lp786
I1
aI1
aI1
aI0
aI1
aI1
aI0
aI1
aI0
aI0
aa(lp787
I0
aI0
aI1
aI0
aI1
aI0
aI0
aI0
aI0
aI0
aa(lp788
I1
aI0
aI0
aI1
aI1
aI1
aI1
aI0
aI0
aI0
aa(lp789
I0
aI1
aI1
aI0
aI1
aI0
aI1
aI1
aI1
aI1
aa(lp790
I1
aI1
aI1
aI0
aI1
aI1
aI1
aI0
aI1
aI0
aa(lp791
I0
aI0
aI1
aI0
aI0
aI0
aI1
aI0
aI1
aI1
aa(lp792
I1
aI1
aI0
aI0
aI1
aI1
aI1
aI1
aI0
aI1
aa(lp793
I1
aI0
aI0
aI1
aI1
aI1
aI1
aI0
aI1
aI1
aa(lp794
I1
aI1
aI0
aI1
aI1
aI1
aI1
aI1
aI1
aI1
aassI66
(dp795
g2
I46
sg3
(lp796
(lp797
I1
aI1
aI0
aI1
aI1
aI0
aI0
aI0
aI0
aI0
aa(lp798
I1
aI0
aI1
aI0
aI1
aI1
aI1
aI0
aI0
aI0
aa(lp799
I1
aI1
aI0
aI1
aI1
aI1
aI1
aI1
aI0
aI1
aa(lp800
I0
aI1
aI0
aI0
aI0
aI1
aI0
aI0
aI0
aI0
aa(lp801
I1
aI1
aI1
aI1
aI0
aI1
aI0
aI0
aI1
aI0
aa(lp802
I0
aI0
aI0
aI1
aI1
aI1
aI1
aI1
aI0
aI0
aa(lp803
I0
aI0
aI1
aI0
aI0
aI1
aI0
aI1
aI1
aI1
aa(lp804
I0
aI1
aI0
aI1
aI0
aI1
aI1
aI0
aI1
aI1
aa(lp805
I0
aI1
aI0
aI1
aI1
aI1
aI0
aI0
aI0
aI0
aa(lp806
I0
aI0
aI0
aI1
aI0
aI0
aI0
aI0
aI0
aI0
aassI67
(dp807
g2
I22
sg3
(lp808
(lp809
I0
aI0
aI1
aI0
aI0
aI0
aI0
aI1
aI0
aI1
aa(lp810
I0
aI0
aI0
aI1
aI0
aI1
aI1
aI0
aI1
aI0
aa(lp811
I0
aI0
aI0
aI1
aI0
aI0
aI1
aI0
aI0
aI0
aa(lp812
I1
aI0
aI0
aI0
aI0
aI0
aI0
aI0
aI1
aI0
aa(lp813
I0
aI0
aI0
aI0
aI0
aI0
aI0
aI0
aI0
aI0
aa(lp814
I0
aI1
aI0
aI0
aI1
aI1
aI0
aI0
aI0
aI0
aa(lp815
I0
aI1
aI1
aI0
aI1
aI0
aI0
aI0
aI0
aI0
aa(lp816
I0
aI0
aI0
aI0
aI0
aI0
aI0
aI0
aI0
aI1
aa(lp817
I1
aI0
aI0
aI0
aI0
aI0
aI0
aI0
aI0
aI0
aa(lp818
I0
aI0
aI1
aI0
aI0
aI1
aI0
aI0
aI0
aI1
aassI68
(dp819
g2
I42
sg3
(lp820
(lp821
I0
aI0
aI0
aI1
aI0
aI0
aI1
aI1
aI0
aI1
aa(lp822
I0
aI0
aI0
aI0
aI1
aI0
aI1
aI1
aI0
aI1
aa(lp823
I0
aI0
aI1
aI0
aI1
aI1
aI0
aI0
aI0
aI1
aa(lp824
I1
aI0
aI0
aI1
aI0
aI0
aI0
aI1
aI0
aI1
aa(lp825
I0
aI0
aI1
aI0
aI1
aI0
aI1
aI1
aI1
aI1
aa(lp826
I0
aI0
aI0
aI0
aI1
aI1
aI0
aI0
aI0
aI1
aa(lp827
I0
aI0
aI1
aI1
aI0
aI0
aI1
aI0
aI0
aI0
aa(lp828
I0
aI0
aI0
aI1
aI1
aI1
aI1
aI1
aI0
aI1
aa(lp829
I0
aI0
aI1
aI0
aI0
aI1
aI0
aI1
aI0
aI0
aa(lp830
I0
aI0
aI1
aI0
aI1
aI1
aI1
aI0
aI1
aI0
aassI69
(dp831
g2
I11
sg3
(lp832
(lp833
I0
aI0
aI0
aI1
aI0
aI0
aI0
aI0
aI0
aI0
aa(lp834
I0
aI0
aI0
aI0
aI0
aI0
aI0
aI0
aI0
aI1
aa(lp835
I0
aI1
aI1
aI0
aI0
aI0
aI0
aI0
aI0
aI0
aa(lp836
I0
aI0
aI0
aI0
aI1
aI0
aI0
aI0
aI0
aI0
aa(lp837
I0
aI0
aI1
aI0
aI1
aI0
aI0
aI0
aI0
aI0
aa(lp838
I0
aI0
aI0
aI0
aI0
aI0
aI0
aI0
aI1
aI0
aa(lp839
I0
aI0
aI0
aI0
aI0
aI0
aI0
aI0
aI0
aI0
aa(lp840
I0
aI0
aI0
aI0
aI0
aI0
aI0
aI0
aI0
aI0
aa(lp841
I1
aI0
aI0
aI0
aI0
aI0
aI0
aI1
aI0
aI0
aa(lp842
I0
aI0
aI0
aI1
aI0
aI0
aI0
aI0
aI0
aI0
aassI70
(dp843
g2
I28
sg3
(lp844
(lp845
I0
aI1
aI0
aI0
aI0
aI0
aI1
aI0
aI0
aI0
aa(lp846
I1
aI0
aI0
aI0
aI1
aI0
aI0
aI0
aI0
aI1
aa(lp847
I0
aI1
aI1
aI0
aI0
aI0
aI1
aI0
aI1
aI0
aa(lp848
I0
aI0
aI0
aI0
aI0
aI0
aI1
aI0
aI0
aI1
aa(lp849
I1
aI0
aI0
aI0
aI0
aI1
aI1
aI1
aI0
aI0
aa(lp850
I1
aI0
aI0
aI1
aI0
aI1
aI0
aI0
aI0
aI0
aa(lp851
I0
aI0
aI1
aI1
aI0
aI0
aI0
aI0
aI0
aI0
aa(lp852
I0
aI0
aI0
aI0
aI0
aI1
aI0
aI1
aI1
aI0
aa(lp853
I0
aI0
aI0
aI0
aI0
aI1
aI1
aI0
aI0
aI0
aa(lp854
I0
aI0
aI1
aI0
aI1
aI0
aI1
aI0
aI0
aI0
aassI71
(dp855
g2
I57
sg3
(lp856
(lp857
I0
aI1
aI1
aI1
aI1
aI1
aI0
aI1
aI0
aI1
aa(lp858
I1
aI0
aI1
aI1
aI1
aI1
aI1
aI1
aI0
aI0
aa(lp859
I0
aI0
aI0
aI1
aI1
aI0
aI1
aI1
aI0
aI1
aa(lp860
I1
aI0
aI0
aI1
aI0
aI1
aI0
aI1
aI1
aI1
aa(lp861
I1
aI1
aI0
aI0
aI0
aI0
aI1
aI0
aI1
aI1
aa(lp862
I1
aI1
aI1
aI0
aI0
aI1
aI1
aI1
aI1
aI1
aa(lp863
I1
aI0
aI0
aI1
aI1
aI1
aI0
aI0
aI1
aI0
aa(lp864
I0
aI1
aI0
aI1
aI0
aI1
aI0
aI1
aI0
aI1
aa(lp865
I1
aI0
aI1
aI0
aI0
aI1
aI1
aI0
aI0
aI1
aa(lp866
I1
aI0
aI0
aI0
aI1
aI0
aI0
aI0
aI1
aI1
aassI72
(dp867
g2
I79
sg3
(lp868
(lp869
I0
aI1
aI1
aI1
aI1
aI1
aI1
aI1
aI1
aI1
aa(lp870
I1
aI1
aI1
aI1
aI1
aI1
aI1
aI0
aI1
aI0
aa(lp871
I1
aI1
aI1
aI0
aI1
aI1
aI1
aI1
aI1
aI1
aa(lp872
I0
aI1
aI1
aI1
aI1
aI0
aI1
aI0
aI1
aI1
aa(lp873
I1
aI1
aI0
aI1
aI1
aI1
aI0
aI1
aI1
aI1
aa(lp874
I0
aI1
aI0
aI1
aI0
aI1
aI1
aI1
aI1
aI1
aa(lp875
I1
aI1
aI1
aI1
aI1
aI0
aI1
aI1
aI0
aI0
aa(lp876
I1
aI1
aI0
aI1
aI1
aI1
aI1
aI1
aI1
aI0
aa(lp877
I0
aI1
aI1
aI1
aI1
aI1
aI1
aI1
aI1
aI0
aa(lp878
I1
aI1
aI1
aI0
aI1
aI0
aI1
aI1
aI1
aI1
aassI73
(dp879
g2
I32
sg3
(lp880
(lp881
I0
aI0
aI0
aI0
aI0
aI0
aI0
aI0
aI1
aI0
aa(lp882
I0
aI0
aI0
aI0
aI0
aI1
aI1
aI1
aI1
aI1
aa(lp883
I0
aI1
aI0
aI1
aI0
aI0
aI0
aI1
aI0
aI1
aa(lp884
I1
aI1
aI0
aI1
aI0
aI1
aI0
aI0
aI0
aI0
aa(lp885
I0
aI0
aI0
aI0
aI1
aI1
aI0
aI1
aI1
aI1
aa(lp886
I0
aI0
aI0
aI1
aI1
aI0
aI0
aI0
aI0
aI0
aa(lp887
I0
aI0
aI0
aI0
aI0
aI1
aI1
aI0
aI0
aI0
aa(lp888
I1
aI1
aI1
aI0
aI0
aI0
aI0
aI0
aI0
aI0
aa(lp889
I1
aI0
aI1
aI0
aI0
aI0
aI0
aI0
aI0
aI0
aa(lp890
I1
aI0
aI0
aI0
aI1
aI0
aI1
aI1
aI0
aI0
aassI74
(dp891
g2
I50
sg3
(lp892
(lp893
I1
aI0
aI1
aI1
aI1
aI1
aI1
aI1
aI1
aI0
aa(lp894
I0
aI1
aI1
aI0
aI0
aI0
aI1
aI0
aI1
aI1
aa(lp895
I1
aI1
aI1
aI0
aI0
aI1
aI1
aI0
aI0
aI0
aa(lp896
I1
aI0
aI0
aI0
aI1
aI0
aI1
aI1
aI0
aI0
aa(lp897
I1
aI1
aI0
aI1
aI1
aI0
aI0
aI1
aI1
aI1
aa(lp898
I0
aI0
aI0
aI0
aI1
aI0
aI1
aI1
aI1
aI0
aa(lp899
I0
aI0
aI0
aI0
aI1
aI1
aI1
aI1
aI0
aI0
aa(lp900
I0
aI0
aI0
aI0
aI0
aI1
aI1
aI1
aI1
aI0
aa(lp901
I1
aI0
aI0
aI1
aI1
aI0
aI0
aI0
aI0
aI1
aa(lp902
I1
aI0
aI1
aI0
aI1
aI0
aI0
aI0
aI1
aI1
aassI75
(dp903
g2
I46
sg3
(lp904
(lp905
I1
aI1
aI1
aI0
aI0
aI1
aI1
aI1
aI1
aI1
aa(lp906
I0
aI0
aI0
aI1
aI1
aI0
aI1
aI0
aI0
aI0
aa(lp907
I0
aI0
aI1
aI1
aI0
aI0
aI1
aI0
aI0
aI0
aa(lp908
I0
aI0
aI1
aI0
aI0
aI1
aI0
aI0
aI1
aI1
aa(lp909
I0
aI0
aI0
aI0
aI1
aI0
aI1
aI0
aI1
aI0
aa(lp910
I0
aI1
aI1
aI0
aI1
aI0
aI1
aI0
aI0
aI0
aa(lp911
I1
aI0
aI1
aI0
aI1
aI0
aI0
aI0
aI1
aI1
aa(lp912
I0
aI0
aI1
aI1
aI1
aI0
aI0
aI0
aI1
aI0
aa(lp913
I1
aI1
aI0
aI1
aI1
aI1
aI0
aI0
aI0
aI0
aa(lp914
I1
aI0
aI0
aI1
aI1
aI1
aI1
aI1
aI1
aI0
aassI76
(dp915
g2
I13
sg3
(lp916
(lp917
I0
aI0
aI0
aI0
aI1
aI0
aI0
aI0
aI1
aI0
aa(lp918
I0
aI0
aI0
aI0
aI1
aI0
aI0
aI0
aI0
aI0
aa(lp919
I0
aI0
aI0
aI1
aI0
aI0
aI0
aI0
aI0
aI0
aa(lp920
I1
aI0
aI0
aI0
aI1
aI0
aI0
aI0
aI1
aI0
aa(lp921
I0
aI1
aI0
aI1
aI0
aI0
aI0
aI0
aI0
aI0
aa(lp922
I0
aI0
aI0
aI0
aI0
aI0
aI0
aI0
aI0
aI0
aa(lp923
I0
aI0
aI0
aI0
aI0
aI0
aI1
aI0
aI0
aI0
aa(lp924
I0
aI0
aI0
aI0
aI0
aI0
aI0
aI0
aI0
aI1
aa(lp925
I0
aI0
aI0
aI0
aI0
aI0
aI0
aI0
aI0
aI0
aa(lp926
I1
aI0
aI1
aI0
aI0
aI0
aI0
aI0
aI0
aI0
aassI77
(dp927
g2
I79
sg3
(lp928
(lp929
I1
aI1
aI1
aI1
aI1
aI1
aI0
aI0
aI1
aI0
aa(lp930
I0
aI1
aI0
aI1
aI1
aI1
aI1
aI1
aI1
aI1
aa(lp931
I1
aI0
aI1
aI1
aI1
aI1
aI1
aI0
aI1
aI0
aa(lp932
I1
aI1
aI0
aI1
aI1
aI1
aI1
aI1
aI0
aI1
aa(lp933
I1
aI1
aI1
aI1
aI0
aI1
aI1
aI1
aI1
aI1
aa(lp934
I1
aI1
aI1
aI0
aI1
aI1
aI1
aI1
aI1
aI1
aa(lp935
I1
aI1
aI0
aI0
aI1
aI1
aI1
aI1
aI0
aI1
aa(lp936
I1
aI1
aI1
aI1
aI1
aI1
aI0
aI1
aI1
aI1
aa(lp937
I0
aI1
aI1
aI0
aI1
aI1
aI1
aI1
aI0
aI1
aa(lp938
I1
aI0
aI1
aI1
aI1
aI1
aI1
aI1
aI1
aI0
aassI78
(dp939
g2
I57
sg3
(lp940
(lp941
I1
aI0
aI1
aI0
aI0
aI1
aI1
aI0
aI1
aI1
aa(lp942
I1
aI0
aI0
aI0
aI0
aI1
aI0
aI0
aI1
aI0
aa(lp943
I1
aI1
aI0
aI0
aI1
aI1
aI1
aI0
aI1
aI0
aa(lp944
I1
aI1
aI0
aI0
aI1
aI1
aI1
aI1
aI1
aI1
aa(lp945
I0
aI1
aI0
aI0
aI1
aI0
aI0
aI1
aI1
aI1
aa(lp946
I1
aI1
aI1
aI0
aI1
aI1
aI1
aI0
aI1
aI0
aa(lp947
I0
aI1
aI1
aI0
aI0
aI0
aI1
aI1
aI1
aI0
aa(lp948
I1
aI0
aI1
aI0
aI0
aI1
aI1
aI1
aI0
aI1
aa(lp949
I0
aI1
aI0
aI0
aI1
aI1
aI1
aI0
aI1
aI1
aa(lp950
I0
aI1
aI1
aI1
aI0
aI1
aI0
aI0
aI1
aI0
aassI79
(dp951
g2
I93
sg3
(lp952
(lp953
I1
aI1
aI1
aI1
aI1
aI1
aI1
aI1
aI1
aI1
aa(lp954
I1
aI1
aI1
aI0
aI1
aI0
aI1
aI1
aI1
aI1
aa(lp955
I1
aI1
aI1
aI1
aI1
aI1
aI1
aI1
aI1
aI1
aa(lp956
I1
aI1
aI1
aI1
aI1
aI1
aI1
aI1
aI1
aI1
aa(lp957
I1
aI1
aI1
aI0
aI1
aI1
aI1
aI1
aI1
aI0
aa(lp958
I1
aI1
aI1
aI1
aI1
aI1
aI1
aI1
aI1
aI1
aa(lp959
I1
aI1
aI1
aI1
aI1
aI1
aI0
aI1
aI1
aI1
aa(lp960
I1
aI1
aI1
aI1
aI1
aI1
aI0
aI1
aI1
aI1
aa(lp961
I1
aI1
aI1
aI1
aI1
aI1
aI1
aI0
aI1
aI1
aa(lp962
I1
aI1
aI1
aI1
aI1
aI1
aI1
aI1
aI1
aI1
aassI80
(dp963
g2
I50
sg3
(lp964
(lp965
I1
aI0
aI0
aI0
aI0
aI0
aI1
aI1
aI1
aI0
aa(lp966
I0
aI1
aI0
aI1
aI0
aI0
aI1
aI1
aI1
aI1
aa(lp967
I0
aI0
aI1
aI1
aI0
aI0
aI0
aI0
aI1
aI1
aa(lp968
I0
aI1
aI0
aI1
aI0
aI1
aI0
aI0
aI1
aI1
aa(lp969
I1
aI1
aI0
aI1
aI0
aI0
aI0
aI1
aI1
aI0
aa(lp970
I0
aI1
aI1
aI0
aI0
aI0
aI1
aI1
aI0
aI0
aa(lp971
I1
aI0
aI1
aI1
aI0
aI1
aI0
aI0
aI1
aI1
aa(lp972
I0
aI0
aI1
aI1
aI0
aI1
aI1
aI0
aI0
aI1
aa(lp973
I1
aI1
aI0
aI0
aI1
aI0
aI0
aI1
aI1
aI0
aa(lp974
I1
aI0
aI1
aI0
aI1
aI1
aI0
aI1
aI0
aI1
aassI81
(dp975
g2
I18
sg3
(lp976
(lp977
I0
aI0
aI0
aI0
aI1
aI1
aI0
aI0
aI0
aI0
aa(lp978
I0
aI0
aI0
aI1
aI0
aI0
aI0
aI0
aI0
aI0
aa(lp979
I0
aI0
aI0
aI0
aI0
aI0
aI1
aI1
aI0
aI0
aa(lp980
I1
aI0
aI0
aI0
aI0
aI0
aI0
aI0
aI1
aI0
aa(lp981
I0
aI0
aI0
aI0
aI0
aI0
aI0
aI0
aI0
aI0
aa(lp982
I0
aI0
aI0
aI0
aI0
aI1
aI1
aI1
aI0
aI0
aa(lp983
I0
aI1
aI0
aI0
aI0
aI0
aI0
aI0
aI0
aI0
aa(lp984
I0
aI0
aI0
aI0
aI1
aI0
aI0
aI0
aI0
aI1
aa(lp985
I1
aI1
aI0
aI0
aI0
aI0
aI1
aI0
aI0
aI0
aa(lp986
I0
aI0
aI0
aI0
aI0
aI1
aI0
aI1
aI0
aI0
aassI82
(dp987
g2
I8
sg3
(lp988
(lp989
I0
aI0
aI0
aI0
aI0
aI0
aI0
aI0
aI0
aI0
aa(lp990
I0
aI0
aI0
aI0
aI0
aI0
aI0
aI0
aI0
aI1
aa(lp991
I0
aI1
aI0
aI0
aI0
aI0
aI0
aI0
aI0
aI0
aa(lp992
I0
aI0
aI0
aI0
aI0
aI0
aI0
aI0
aI0
aI0
aa(lp993
I0
aI0
aI0
aI0
aI0
aI1
aI0
aI0
aI0
aI0
aa(lp994
I0
aI1
aI0
aI1
aI0
aI0
aI0
aI0
aI0
aI1
aa(lp995
I0
aI0
aI0
aI0
aI0
aI0
aI0
aI1
aI0
aI0
aa(lp996
I0
aI0
aI0
aI0
aI0
aI0
aI0
aI0
aI0
aI0
aa(lp997
I0
aI0
aI0
aI0
aI0
aI0
aI0
aI0
aI0
aI0
aa(lp998
I0
aI0
aI0
aI1
aI0
aI0
aI0
aI0
aI0
aI0
aassI83
(dp999
g2
I6
sg3
(lp1000
(lp1001
I0
aI0
aI0
aI0
aI0
aI0
aI0
aI0
aI0
aI0
aa(lp1002
I0
aI0
aI0
aI0
aI0
aI0
aI0
aI0
aI0
aI0
aa(lp1003
I0
aI0
aI0
aI0
aI0
aI0
aI0
aI0
aI0
aI0
aa(lp1004
I0
aI0
aI0
aI0
aI0
aI0
aI0
aI1
aI0
aI0
aa(lp1005
I1
aI0
aI0
aI0
aI0
aI0
aI0
aI0
aI0
aI0
aa(lp1006
I0
aI0
aI0
aI1
aI1
aI0
aI0
aI0
aI0
aI0
aa(lp1007
I0
aI0
aI0
aI0
aI0
aI0
aI0
aI0
aI0
aI0
aa(lp1008
I0
aI0
aI0
aI1
aI0
aI0
aI0
aI0
aI0
aI0
aa(lp1009
I0
aI0
aI0
aI0
aI0
aI0
aI0
aI0
aI0
aI1
aa(lp1010
I0
aI0
aI0
aI0
aI0
aI0
aI0
aI0
aI0
aI0
aassI84
(dp1011
g2
I84
sg3
(lp1012
(lp1013
I1
aI0
aI1
aI1
aI1
aI1
aI1
aI0
aI1
aI1
aa(lp1014
I1
aI1
aI1
aI0
aI1
aI1
aI1
aI0
aI0
aI1
aa(lp1015
I0
aI1
aI1
aI1
aI1
aI1
aI1
aI0
aI1
aI1
aa(lp1016
I1
aI1
aI1
aI1
aI1
aI1
aI1
aI1
aI1
aI1
aa(lp1017
I1
aI1
aI1
aI1
aI1
aI1
aI1
aI0
aI1
aI1
aa(lp1018
I1
aI1
aI0
aI1
aI0
aI1
aI1
aI1
aI1
aI0
aa(lp1019
I1
aI1
aI0
aI1
aI1
aI1
aI1
aI1
aI1
aI1
aa(lp1020
I1
aI1
aI0
aI1
aI1
aI1
aI1
aI1
aI1
aI1
aa(lp1021
I1
aI1
aI1
aI1
aI1
aI1
aI0
aI1
aI1
aI1
aa(lp1022
I1
aI0
aI0
aI1
aI1
aI1
aI1
aI1
aI1
aI1
aassI85
(dp1023
g2
I57
sg3
(lp1024
(lp1025
I1
aI1
aI1
aI0
aI0
aI0
aI1
aI0
aI1
aI1
aa(lp1026
I1
aI1
aI0
aI1
aI1
aI0
aI0
aI1
aI0
aI1
aa(lp1027
I1
aI1
aI1
aI0
aI1
aI0
aI1
aI0
aI0
aI1
aa(lp1028
I1
aI1
aI1
aI0
aI0
aI1
aI0
aI1
aI1
aI0
aa(lp1029
I1
aI1
aI0
aI1
aI0
aI1
aI0
aI1
aI0
aI1
aa(lp1030
I0
aI0
aI0
aI1
aI1
aI0
aI1
aI1
aI0
aI0
aa(lp1031
I0
aI0
aI0
aI1
aI1
aI0
aI1
aI1
aI1
aI0
aa(lp1032
I1
aI1
aI0
aI0
aI0
aI0
aI0
aI1
aI0
aI1
aa(lp1033
I1
aI0
aI1
aI0
aI1
aI1
aI1
aI0
aI1
aI0
aa(lp1034
I1
aI1
aI1
aI0
aI1
aI0
aI1
aI1
aI1
aI1
aassI86
(dp1035
g2
I35
sg3
(lp1036
(lp1037
I0
aI0
aI0
aI1
aI0
aI1
aI1
aI0
aI1
aI0
aa(lp1038
I0
aI1
aI0
aI0
aI1
aI1
aI0
aI0
aI0
aI0
aa(lp1039
I0
aI0
aI1
aI0
aI0
aI0
aI1
aI0
aI0
aI1
aa(lp1040
I0
aI0
aI1
aI1
aI0
aI1
aI1
aI0
aI1
aI0
aa(lp1041
I0
aI1
aI1
aI0
aI0
aI1
aI1
aI0
aI1
aI0
aa(lp1042
I1
aI1
aI0
aI0
aI0
aI0
aI0
aI1
aI0
aI1
aa(lp1043
I1
aI1
aI1
aI0
aI0
aI0
aI0
aI0
aI1
aI0
aa(lp1044
I0
aI1
aI0
aI0
aI0
aI1
aI0
aI0
aI0
aI1
aa(lp1045
I0
aI0
aI0
aI0
aI1
aI1
aI0
aI0
aI0
aI0
aa(lp1046
I0
aI1
aI0
aI0
aI0
aI1
aI0
aI0
aI0
aI0
aassI87
(dp1047
g2
I84
sg3
(lp1048
(lp1049
I1
aI1
aI1
aI1
aI0
aI1
aI1
aI1
aI1
aI1
aa(lp1050
I0
aI1
aI1
aI1
aI0
aI1
aI1
aI1
aI1
aI0
aa(lp1051
I1
aI1
aI1
aI1
aI1
aI0
aI1
aI1
aI1
aI1
aa(lp1052
I1
aI1
aI1
aI1
aI1
aI1
aI1
aI1
aI1
aI1
aa(lp1053
I1
aI0
aI1
aI1
aI1
aI1
aI1
aI1
aI1
aI1
aa(lp1054
I1
aI0
aI1
aI1
aI1
aI1
aI1
aI1
aI1
aI1
aa(lp1055
I0
aI0
aI0
aI0
aI0
aI1
aI1
aI1
aI1
aI1
aa(lp1056
I1
aI1
aI1
aI1
aI1
aI0
aI1
aI1
aI0
aI1
aa(lp1057
I1
aI1
aI1
aI0
aI1
aI1
aI1
aI1
aI1
aI1
aa(lp1058
I0
aI1
aI1
aI1
aI1
aI1
aI1
aI1
aI1
aI1
aassI88
(dp1059
g2
I74
sg3
(lp1060
(lp1061
I0
aI1
aI1
aI0
aI1
aI0
aI1
aI1
aI1
aI1
aa(lp1062
I0
aI1
aI1
aI1
aI1
aI0
aI1
aI1
aI1
aI1
aa(lp1063
I1
aI0
aI1
aI0
aI1
aI1
aI1
aI1
aI1
aI1
aa(lp1064
I1
aI1
aI1
aI1
aI0
aI1
aI1
aI1
aI1
aI0
aa(lp1065
I1
aI0
aI1
aI1
aI1
aI1
aI1
aI0
aI1
aI0
aa(lp1066
I0
aI1
aI0
aI1
aI1
aI1
aI1
aI0
aI1
aI1
aa(lp1067
I0
aI0
aI1
aI1
aI1
aI1
aI1
aI1
aI0
aI0
aa(lp1068
I0
aI1
aI1
aI0
aI1
aI0
aI0
aI1
aI1
aI1
aa(lp1069
I1
aI1
aI1
aI1
aI1
aI1
aI1
aI1
aI0
aI1
aa(lp1070
I1
aI0
aI1
aI0
aI1
aI1
aI1
aI1
aI1
aI1
aassI89
(dp1071
g2
I75
sg3
(lp1072
(lp1073
I1
aI0
aI1
aI1
aI1
aI0
aI0
aI0
aI1
aI0
aa(lp1074
I1
aI0
aI1
aI1
aI1
aI1
aI1
aI1
aI1
aI1
aa(lp1075
I1
aI1
aI1
aI0
aI1
aI1
aI1
aI1
aI1
aI0
aa(lp1076
I0
aI1
aI1
aI1
aI1
aI1
aI0
aI1
aI0
aI1
aa(lp1077
I0
aI1
aI1
aI1
aI0
aI0
aI1
aI0
aI1
aI1
aa(lp1078
I1
aI1
aI1
aI1
aI1
aI1
aI1
aI1
aI1
aI1
aa(lp1079
I1
aI1
aI0
aI1
aI1
aI1
aI1
aI1
aI0
aI1
aa(lp1080
I1
aI1
aI1
aI0
aI1
aI1
aI0
aI0
aI1
aI1
aa(lp1081
I0
aI1
aI1
aI1
aI1
aI1
aI1
aI1
aI1
aI1
aa(lp1082
I0
aI0
aI1
aI1
aI1
aI1
aI0
aI1
aI1
aI0
aassI90
(dp1083
g2
I51
sg3
(lp1084
(lp1085
I0
aI0
aI0
aI0
aI1
aI0
aI0
aI0
aI1
aI0
aa(lp1086
I0
aI0
aI0
aI0
aI1
aI0
aI0
aI1
aI0
aI0
aa(lp1087
I0
aI1
aI1
aI1
aI1
aI0
aI1
aI0
aI0
aI1
aa(lp1088
I0
aI1
aI1
aI1
aI1
aI1
aI0
aI0
aI0
aI0
aa(lp1089
I0
aI0
aI0
aI1
aI0
aI1
aI1
aI1
aI0
aI1
aa(lp1090
I1
aI1
aI0
aI1
aI1
aI0
aI1
aI0
aI1
aI1
aa(lp1091
I0
aI0
aI1
aI1
aI0
aI1
aI1
aI1
aI0
aI0
aa(lp1092
I1
aI1
aI1
aI1
aI1
aI1
aI1
aI1
aI0
aI0
aa(lp1093
I1
aI1
aI0
aI0
aI1
aI1
aI0
aI1
aI1
aI1
aa(lp1094
I0
aI1
aI0
aI0
aI0
aI1
aI0
aI0
aI1
aI1
aassI91
(dp1095
g2
I85
sg3
(lp1096
(lp1097
I1
aI1
aI1
aI0
aI1
aI1
aI1
aI1
aI1
aI1
aa(lp1098
I1
aI1
aI1
aI1
aI1
aI1
aI0
aI1
aI1
aI1
aa(lp1099
I1
aI1
aI1
aI1
aI0
aI1
aI1
aI1
aI1
aI1
aa(lp1100
I0
aI0
aI1
aI1
aI1
aI1
aI1
aI1
aI1
aI0
aa(lp1101
I1
aI1
aI1
aI1
aI1
aI0
aI1
aI1
aI0
aI1
aa(lp1102
I1
aI1
aI1
aI1
aI1
aI1
aI0
aI1
aI1
aI1
aa(lp1103
I1
aI1
aI1
aI1
aI1
aI0
aI1
aI1
aI1
aI1
aa(lp1104
I1
aI1
aI1
aI0
aI1
aI1
aI1
aI1
aI1
aI1
aa(lp1105
I0
aI0
aI1
aI0
aI1
aI1
aI1
aI1
aI1
aI1
aa(lp1106
I1
aI1
aI1
aI1
aI1
aI1
aI1
aI1
aI0
aI1
aassI92
(dp1107
g2
I13
sg3
(lp1108
(lp1109
I0
aI0
aI0
aI1
aI0
aI0
aI0
aI0
aI0
aI0
aa(lp1110
I0
aI0
aI0
aI0
aI0
aI0
aI1
aI0
aI0
aI0
aa(lp1111
I0
aI0
aI0
aI1
aI0
aI0
aI0
aI0
aI0
aI0
aa(lp1112
I0
aI0
aI0
aI0
aI0
aI1
aI0
aI0
aI1
aI0
aa(lp1113
I0
aI0
aI0
aI0
aI0
aI0
aI0
aI0
aI0
aI0
aa(lp1114
I0
aI0
aI0
aI0
aI0
aI0
aI0
aI0
aI0
aI0
aa(lp1115
I0
aI1
aI1
aI0
aI0
aI0
aI0
aI0
aI0
aI0
aa(lp1116
I0
aI1
aI0
aI0
aI1
aI0
aI0
aI1
aI0
aI0
aa(lp1117
I0
aI0
aI0
aI0
aI0
aI1
aI0
aI1
aI0
aI0
aa(lp1118
I1
aI0
aI0
aI0
aI0
aI0
aI0
aI0
aI0
aI0
aassI93
(dp1119
g2
I99
sg3
(lp1120
(lp1121
I1
aI0
aI1
aI1
aI1
aI1
aI1
aI1
aI1
aI1
aa(lp1122
I1
aI1
aI1
aI1
aI1
aI1
aI1
aI1
aI1
aI1
aa(lp1123
I1
aI1
aI1
aI1
aI1
aI1
aI1
aI1
aI1
aI1
aa(lp1124
I1
aI1
aI1
aI1
aI1
aI1
aI1
aI1
aI1
aI1
aa(lp1125
I1
aI1
aI1
aI1
aI1
aI1
aI1
aI1
aI1
aI1
aa(lp1126
I1
aI1
aI1
aI1
aI1
aI1
aI1
aI1
aI1
aI1
aa(lp1127
I1
aI1
aI1
aI1
aI1
aI1
aI1
aI1
aI1
aI1
aa(lp1128
I1
aI1
aI1
aI1
aI1
aI1
aI1
aI1
aI1
aI1
aa(lp1129
I1
aI1
aI1
aI1
aI1
aI1
aI1
aI1
aI1
aI1
aa(lp1130
I1
aI1
aI1
aI1
aI1
aI1
aI1
aI1
aI1
aI1
aassI94
(dp1131
g2
I60
sg3
(lp1132
(lp1133
I0
aI1
aI1
aI1
aI0
aI1
aI0
aI0
aI1
aI1
aa(lp1134
I0
aI1
aI0
aI0
aI0
aI1
aI1
aI0
aI1
aI1
aa(lp1135
I1
aI1
aI0
aI1
aI0
aI0
aI1
aI1
aI1
aI1
aa(lp1136
I1
aI0
aI1
aI1
aI0
aI0
aI0
aI0
aI1
aI1
aa(lp1137
I0
aI1
aI1
aI1
aI0
aI1
aI0
aI1
aI1
aI0
aa(lp1138
I1
aI0
aI1
aI0
aI0
aI1
aI1
aI1
aI1
aI1
aa(lp1139
I0
aI1
aI0
aI0
aI1
aI1
aI0
aI1
aI1
aI1
aa(lp1140
I1
aI1
aI1
aI0
aI1
aI0
aI1
aI1
aI1
aI1
aa(lp1141
I1
aI1
aI1
aI0
aI1
aI0
aI1
aI1
aI0
aI0
aa(lp1142
I0
aI1
aI0
aI0
aI0
aI1
aI0
aI0
aI1
aI1
aassI95
(dp1143
g2
I42
sg3
(lp1144
(lp1145
I0
aI0
aI0
aI0
aI1
aI1
aI0
aI1
aI0
aI0
aa(lp1146
I1
aI1
aI0
aI0
aI0
aI0
aI1
aI1
aI0
aI0
aa(lp1147
I0
aI1
aI0
aI1
aI1
aI1
aI0
aI0
aI0
aI1
aa(lp1148
I1
aI1
aI1
aI1
aI1
aI1
aI0
aI0
aI0
aI0
aa(lp1149
I0
aI1
aI1
aI0
aI0
aI0
aI1
aI1
aI0
aI1
aa(lp1150
I0
aI1
aI0
aI0
aI0
aI0
aI0
aI0
aI0
aI0
aa(lp1151
I0
aI1
aI1
aI0
aI1
aI1
aI0
aI0
aI1
aI0
aa(lp1152
I1
aI1
aI0
aI1
aI1
aI1
aI0
aI0
aI1
aI0
aa(lp1153
I0
aI0
aI0
aI1
aI1
aI1
aI0
aI0
aI0
aI0
aa(lp1154
I0
aI0
aI1
aI0
aI1
aI0
aI1
aI1
aI0
aI0
aassI96
(dp1155
g2
I4
sg3
(lp1156
(lp1157
I0
aI0
aI0
aI0
aI0
aI0
aI0
aI0
aI0
aI0
aa(lp1158
I0
aI0
aI0
aI0
aI0
aI0
aI0
aI0
aI0
aI1
aa(lp1159
I0
aI1
aI0
aI0
aI0
aI0
aI0
aI0
aI0
aI0
aa(lp1160
I0
aI0
aI1
aI0
aI0
aI0
aI0
aI0
aI0
aI0
aa(lp1161
I1
aI0
aI0
aI0
aI0
aI0
aI0
aI0
aI0
aI0
aa(lp1162
I0
aI0
aI0
aI0
aI0
aI0
aI0
aI0
aI0
aI0
aa(lp1163
I0
aI0
aI0
aI0
aI0
aI0
aI0
aI0
aI0
aI0
aa(lp1164
I0
aI0
aI0
aI0
aI0
aI0
aI0
aI0
aI0
aI0
aa(lp1165
I0
aI0
aI0
aI0
aI0
aI0
aI0
aI0
aI0
aI0
aa(lp1166
I0
aI0
aI0
aI0
aI0
aI0
aI0
aI0
aI0
aI0
aassI97
(dp1167
g2
I34
sg3
(lp1168
(lp1169
I0
aI0
aI0
aI0
aI0
aI1
aI0
aI1
aI1
aI1
aa(lp1170
I1
aI0
aI0
aI1
aI0
aI0
aI1
aI1
aI1
aI0
aa(lp1171
I0
aI0
aI1
aI0
aI1
aI1
aI1
aI0
aI1
aI0
aa(lp1172
I0
aI1
aI0
aI0
aI0
aI0
aI0
aI0
aI0
aI0
aa(lp1173
I0
aI0
aI0
aI1
aI1
aI1
aI0
aI0
aI0
aI0
aa(lp1174
I0
aI0
aI1
aI1
aI0
aI0
aI1
aI0
aI0
aI1
aa(lp1175
I1
aI0
aI0
aI1
aI1
aI0
aI0
aI0
aI0
aI1
aa(lp1176
I0
aI0
aI0
aI0
aI0
aI1
aI0
aI0
aI0
aI1
aa(lp1177
I0
aI0
aI0
aI0
aI1
aI1
aI0
aI1
aI0
aI0
aa(lp1178
I0
aI0
aI0
aI0
aI1
aI1
aI0
aI0
aI1
aI0
aassI98
(dp1179
g2
I21
sg3
(lp1180
(lp1181
I0
aI0
aI0
aI0
aI0
aI0
aI0
aI1
aI0
aI0
aa(lp1182
I0
aI0
aI0
aI1
aI0
aI0
aI0
aI0
aI0
aI0
aa(lp1183
I0
aI0
aI0
aI0
aI0
aI1
aI0
aI1
aI0
aI0
aa(lp1184
I1
aI0
aI1
aI0
aI1
aI0
aI0
aI0
aI0
aI0
aa(lp1185
I0
aI0
aI1
aI1
aI0
aI0
aI1
aI0
aI1
aI0
aa(lp1186
I0
aI0
aI0
aI0
aI0
aI0
aI1
aI1
aI0
aI0
aa(lp1187
I0
aI0
aI1
aI0
aI0
aI0
aI0
aI0
aI1
aI0
aa(lp1188
I0
aI0
aI0
aI0
aI0
aI0
aI1
aI0
aI0
aI1
aa(lp1189
I0
aI1
aI1
aI0
aI0
aI0
aI0
aI0
aI0
aI0
aa(lp1190
I0
aI0
aI0
aI0
aI1
aI1
aI0
aI0
aI0
aI0
aassI99
(dp1191
g2
I17
sg3
(lp1192
(lp1193
I0
aI0
aI0
aI0
aI0
aI0
aI0
aI0
aI0
aI1
aa(lp1194
I0
aI0
aI1
aI0
aI0
aI0
aI0
aI1
aI0
aI0
aa(lp1195
I0
aI0
aI0
aI0
aI0
aI1
aI1
aI0
aI0
aI0
aa(lp1196
I1
aI1
aI0
aI0
aI1
aI0
aI0
aI0
aI0
aI0
aa(lp1197
I1
aI1
aI0
aI0
aI0
aI0
aI0
aI0
aI0
aI0
aa(lp1198
I0
aI0
aI0
aI1
aI0
aI0
aI0
aI0
aI0
aI0
aa(lp1199
I0
aI0
aI0
aI0
aI1
aI0
aI0
aI1
aI0
aI1
aa(lp1200
I0
aI0
aI0
aI0
aI0
aI1
aI0
aI0
aI0
aI0
aa(lp1201
I0
aI0
aI0
aI0
aI0
aI0
aI0
aI0
aI0
aI0
aa(lp1202
I1
aI0
aI0
aI0
aI0
aI0
aI0
aI1
aI0
aI0
aass.