(dp0
I0
(dp1
S'count'
p2
I32
sS'grille'
p3
(lp4
(lp5
I0
aI0
aI0
aI1
aI0
aI0
aI0
aI0
aI1
aI0
aa(lp6
I0
aI0
aI0
aI0
aI0
aI0
aI1
aI1
aI0
aI0
aa(lp7
I0
aI1
aI0
aI0
aI1
aI1
aI0
aI0
aI1
aI1
aa(lp8
I1
aI0
aI0
aI0
aI0
aI1
aI0
aI0
aI1
aI0
aa(lp9
I1
aI0
aI1
aI1
aI0
aI1
aI0
aI1
aI1
aI1
aa(lp10
I0
aI1
aI0
aI0
aI0
aI1
aI0
aI1
aI0
aI0
aa(lp11
I0
aI0
aI0
aI0
aI0
aI0
aI1
aI0
aI0
aI0
aa(lp12
I1
aI0
aI0
aI0
aI0
aI1
aI0
aI0
aI1
aI0
aa(lp13
I0
aI0
aI0
aI0
aI1
aI1
aI1
aI0
aI0
aI0
aa(lp14
I0
aI0
aI0
aI1
aI0
aI1
aI1
aI0
aI0
aI0
aassI1
(dp15
g2
I13
sg3
(lp16
(lp17
I0
aI0
aI0
aI0
aI0
aI0
aI1
aI0
aI0
aI0
aa(lp18
I0
aI0
aI0
aI0
aI0
aI0
aI0
aI0
aI0
aI0
aa(lp19
I0
aI0
aI0
aI0
aI0
aI0
aI1
aI0
aI0
aI0
aa(lp20
I0
aI0
aI0
aI0
aI0
aI0
aI0
aI0
aI1
aI1
aa(lp21
I0
aI0
aI0
aI0
aI0
aI0
aI0
aI1
aI0
aI1
aa(lp22
I1
aI0
aI0
aI0
aI0
aI0
aI0
aI0
aI0
aI0
aa(lp23
I0
aI0
aI0
aI0
aI0
aI0
aI0
aI0
aI1
aI0
aa(lp24
I0
aI0
aI0
aI0
aI0
aI0
aI0
aI0
aI1
aI0
aa(lp25
I0
aI0
aI0
aI0
aI1
aI0
aI0
aI0
aI0
aI0
aa(lp26
I1
aI0
aI0
aI0
aI1
aI0
aI1
aI0
aI0
aI0
aassI2
(dp27
g2
I82
sg3
(lp28
(lp29
I1
aI1
aI1
aI1
aI0
aI0
aI1
aI1
aI1
aI1
aa(lp30
I0
aI1
aI1
aI1
aI1
aI1
aI1
aI1
aI1
aI1
aa(lp31
I0
aI1
aI1
aI1
aI0
aI1
aI1
aI1
aI1
aI1
aa(lp32
I0
aI1
aI1
aI1
aI0
aI1
aI1
aI0
aI0
aI0
aa(lp33
I1
aI1
aI1
aI1
aI1
aI0
aI1
aI1
aI1
aI1
aa(lp34
I1
aI1
aI0
aI1
aI1
aI1
aI1
aI1
aI1
aI1
aa(lp35
I0
aI1
aI1
aI0
aI1
aI0
aI1
aI1
aI0
aI1
aa(lp36
I1
aI1
aI1
aI0
aI1
aI1
aI1
aI1
aI1
aI1
aa(lp37
I1
aI1
aI1
aI1
aI1
aI1
aI1
aI1
aI1
aI1
aa(lp38
I1
aI1
aI1
aI1
aI0
aI1
aI1
aI1
aI1
aI1
aassI3
(dp39
g2
I59
sg3
(lp40
(lp41
I1
aI0
aI0
aI0
aI1
aI0
aI0
aI0
aI1
aI0
aa(lp42
I1
aI0
aI1
aI0
aI1
aI0
aI1
aI0
aI1
aI0
aa(lp43
I0
aI0
aI0
aI1
aI1
aI1
aI0
aI1
aI1
aI1
aa(lp44
I1
aI1
aI0
aI0
aI0
aI1
aI1
aI0
aI0
aI1
aa(lp45
I0
aI1
aI1
aI1
aI0
aI0
aI1
aI0
aI1
aI1
aa(lp46
I0
aI1
aI1
aI1
aI1
aI1
aI1
aI1
aI0
aI0
aa(lp47
I1
aI1
aI1
aI1
aI0
aI0
aI1
aI1
aI0
aI1
aa(lp48
I1
aI1
aI0
aI0
aI1
aI1
aI0
aI0
aI1
aI1
aa(lp49
I1
aI1
aI1
aI1
aI0
aI1
aI0
aI1
aI0
aI1
aa(lp50
I1
aI1
aI1
aI1
aI0
aI0
aI0
aI1
aI1
aI1
aassI4
(dp51
g2
I93
sg3
(lp52
(lp53
I0
aI1
aI1
aI1
aI1
aI1
aI1
aI1
aI1
aI1
aa(lp54
I1
aI1
aI1
aI1
aI1
aI1
aI1
aI1
aI1
aI1
aa(lp55
I1
aI1
aI1
aI1
aI0
aI1
aI1
aI1
aI1
aI1
aa(lp56
I1
aI0
aI1
aI1
aI0
aI1
aI1
aI1
aI1
aI1
aa(lp57
I1
aI1
aI0
aI1
aI1
aI1
aI1
aI1
aI1
aI1
aa(lp58
I1
aI1
aI1
aI1
aI1
aI1
aI1
aI1
aI1
aI1
aa(lp59
I1
aI1
aI1
aI1
aI0
aI1
aI1
aI1
aI1
aI1
aa(lp60
I1
aI1
aI1
aI1
aI1
aI1
aI1
aI1
aI1
aI1
aa(lp61
I1
aI1
aI1
aI0
aI1
aI1
aI1
aI1
aI1
aI1
aa(lp62
I1
aI1
aI1
aI1
aI1
aI1
aI1
aI1
aI1
aI1
aassI5
(dp63
g2
I96
sg3
(lp64
(lp65
I1
aI1
aI1
aI1
aI1
aI1
aI1
aI1
aI1
aI1
aa(lp66
I1
aI0
aI1
aI1
aI1
aI1
aI1
aI1
aI1
aI1
aa(lp67
I1
aI1
aI1
aI1
aI1
aI1
aI1
aI1
aI1
aI1
aa(lp68
I1
aI1
aI1
aI1
aI1
aI1
aI1
aI1
aI1
aI1
aa(lp69
I1
aI1
aI1
aI1
aI1
aI1
aI0
aI1
aI1
aI1
aa(lp70
I1
aI1
aI1
aI1
aI1
aI1
aI1
aI1
aI1
aI1
aa(lp71
I0
aI1
aI1
aI1
aI1
aI1
aI1
aI1
aI1
aI1
aa(lp72
I1
aI1
aI1
aI1
aI1
aI1
aI1
aI1
aI1
aI1
aa(lp73
I1
aI1
aI1
aI1
aI1
aI1
aI1
aI1
aI1
aI1
aa(lp74
I1
aI1
aI1
aI1
aI1
aI1
aI1
aI1
aI1
aI0
aassI6
(dp75
g2
I72
sg3
(lp76
(lp77
I0
aI0
aI1
aI1
aI1
aI1
aI1
aI0
aI1
aI1
aa(lp78
I1
aI1
aI1
aI1
aI1
aI1
aI1
aI1
aI1
aI1
aa(lp79
I1
aI1
aI1
aI1
aI1
aI0
aI0
aI1
aI0
aI1
aa(lp80
I1
aI0
aI1
aI1
aI0
aI0
aI1
aI1
aI0
aI1
aa(lp81
I1
aI1
aI0
aI1
aI0
aI1
aI1
aI0
aI1
aI1
aa(lp82
I0
aI1
aI1
aI1
aI1
aI1
aI1
aI1
aI1
aI0
aa(lp83
I0
aI1
aI1
aI1
aI1
aI0
aI1
aI0
aI1
aI0
aa(lp84
I1
aI1
aI0
aI1
aI0
aI1
aI1
aI0
aI1
aI1
aa(lp85
I0
aI0
aI0
aI1
aI1
aI1
aI1
aI1
aI1
aI1
aa(lp86
I0
aI1
aI1
aI1
aI0
aI1
aI0
aI1
aI1
aI1
aassI7
(dp87
g2
I66
sg3
(lp88
(lp89
I1
aI1
aI0
aI1
aI1
aI0
aI0
aI0
aI1
aI0
aa(lp90
I1
aI1
aI1
aI0
aI1
aI1
aI1
aI1
aI0
aI1
aa(lp91
I0
aI1
aI1
aI0
aI1
aI0
aI1
aI1
aI1
aI0
aa(lp92
I1
aI1
aI0
aI1
aI1
aI0
aI0
aI1
aI0
aI1
aa(lp93
I0
aI0
aI0
aI1
aI1
aI0
aI0
aI1
aI1
aI1
aa(lp94
I1
aI1
aI1
aI1
aI1
aI1
aI0
aI0
aI1
aI1
aa(lp95
I1
aI1
aI1
aI1
aI1
aI1
aI1
aI1
aI1
aI1
aa(lp96
I0
aI1
aI1
aI1
aI1
aI0
aI1
aI1
aI0
aI0
aa(lp97
I1
aI0
aI1
aI1
aI0
aI1
aI1
aI1
aI1
aI0
aa(lp98
I0
aI0
aI1
aI1
aI0
aI0
aI1
aI1
aI0
aI1
aassI8
(dp99
g2
I63
sg3
(lp100
(lp101
I1
aI1
aI1
aI1
aI0
aI0
aI1
aI1
aI1
aI0
aa(lp102
I1
aI1
aI0
aI1
aI1
aI1
aI1
aI0
aI0
aI0
aa(lp103
I0
aI0
aI0
aI1
aI1
aI0
aI1
aI0
aI1
aI1
aa(lp104
I1
aI0
aI1
aI1
aI1
aI1
aI1
aI0
aI0
aI0
aa(lp105
I0
aI1
aI1
aI1
aI1
aI0
aI0
aI1
aI1
aI1
aa(lp106
I0
aI1
aI0
aI1
aI1
aI0
aI0
aI1
aI1
aI0
aa(lp107
I0
aI1
aI1
aI0
aI1
aI1
aI1
aI1
aI0
aI0
aa(lp108
I1
aI1
aI0
aI1
aI0
aI0
aI1
aI1
aI1
aI1
aa(lp109
I0
aI1
aI1
aI0
aI1
aI0
aI1
aI0
aI1
aI1
aa(lp110
I0
aI1
aI1
aI1
aI1
aI1
aI1
aI1
aI0
aI1
aassI9
(dp111
g2
I93
sg3
(lp112
(lp113
I1
aI1
aI1
aI1
aI1
aI0
aI1
aI1
aI1
aI1
aa(lp114
I1
aI1
aI1
aI1
aI1
aI1
aI1
aI1
aI1
aI1
aa(lp115
I1
aI1
aI1
aI0
aI1
aI1
aI1
aI1
aI1
aI1
aa(lp116
I1
aI1
aI1
aI1
aI1
aI1
aI0
aI0
aI1
aI1
aa(lp117
I1
aI1
aI1
aI1
aI1
aI1
aI1
aI1
aI1
aI1
aa(lp118
I0
aI1
aI1
aI1
aI0
aI1
aI1
aI1
aI1
aI1
aa(lp119
I1
aI1
aI1
aI1
aI1
aI1
aI1
aI1
aI1
aI1
aa(lp120
I1
aI1
aI1
aI1
aI1
aI1
aI1
aI1
aI1
aI1
aa(lp121
I1
aI1
aI1
aI1
aI1
aI1
aI1
aI1
aI1
aI1
aa(lp122
I1
aI1
aI1
aI1
aI0
aI1
aI1
aI1
aI1
aI1
aassI10
(dp123
g2
I44
sg3
(lp124
(lp125
I0
aI0
aI0
aI1
aI0
aI0
aI1
aI1
aI0
aI0
aa(lp126
I1
aI0
aI0
aI1
aI1
aI1
aI0
aI0
aI1
aI0
aa(lp127
I1
aI0
aI1
aI0
aI1
aI0
aI0
aI0
aI1
aI1
aa(lp128
I1
aI1
aI1
aI0
aI0
aI1
aI1
aI0
aI0
aI0
aa(lp129
I0
aI1
aI0
aI0
aI1
aI0
aI0
aI0
aI0
aI0
aa(lp130
I0
aI0
aI0
aI1
aI1
aI0
aI0
aI0
aI0
aI0
aa(lp131
I1
aI0
aI1
aI0
aI1
aI0
aI1
aI1
aI0
aI1
aa(lp132
I1
aI1
aI1
aI0
aI0
aI1
aI0
aI0
aI0
aI1
aa(lp133
I0
aI0
aI0
aI0
aI1
aI1
aI1
aI1
aI0
aI1
aa(lp134
I1
aI0
aI1
aI1
aI1
aI1
aI0
aI0
aI1
aI0
aassI11
(dp135
g2
I81
sg3
(lp136
(lp137
I1
aI1
aI1
aI0
aI0
aI1
aI1
aI0
aI1
aI1
aa(lp138
I1
aI1
aI1
aI1
aI1
aI1
aI1
aI1
aI1
aI1
aa(lp139
I1
aI1
aI1
aI1
aI1
aI0
aI1
aI1
aI1
aI1
aa(lp140
I1
aI1
aI1
aI1
aI1
aI1
aI1
aI1
aI1
aI1
aa(lp141
I1
aI1
aI0
aI1
aI0
aI1
aI0
aI1
aI1
aI0
aa(lp142
I1
aI1
aI1
aI0
aI1
aI1
aI1
aI1
aI1
aI1
aa(lp143
I1
aI1
aI1
aI0
aI0
aI1
aI1
aI1
aI1
aI0
aa(lp144
I1
aI1
aI1
aI1
aI0
aI1
aI1
aI1
aI1
aI0
aa(lp145
I1
aI0
aI0
aI1
aI0
aI1
aI1
aI0
aI1
aI1
aa(lp146
I0
aI1
aI1
aI1
aI1
aI1
aI1
aI1
aI1
aI1
aassI12
(dp147
g2
I60
sg3
(lp148
(lp149
I1
aI1
aI1
aI0
aI1
aI0
aI1
aI0
aI1
aI0
aa(lp150
I0
aI0
aI0
aI1
aI1
aI0
aI0
aI1
aI0
aI1
aa(lp151
I1
aI1
aI1
aI0
aI1
aI0
aI1
aI1
aI0
aI0
aa(lp152
I1
aI0
aI1
aI1
aI1
aI1
aI0
aI1
aI1
aI1
aa(lp153
I0
aI0
aI0
aI0
aI1
aI0
aI0
aI1
aI1
aI0
aa(lp154
I0
aI0
aI0
aI1
aI0
aI0
aI0
aI1
aI1
aI1
aa(lp155
I1
aI1
aI1
aI0
aI0
aI0
aI1
aI1
aI1
aI1
aa(lp156
I1
aI0
aI1
aI1
aI1
aI0
aI1
aI0
aI1
aI0
aa(lp157
I1
aI1
aI1
aI1
aI1
aI1
aI1
aI1
aI1
aI1
aa(lp158
I1
aI1
aI1
aI0
aI0
aI1
aI0
aI1
aI1
aI0
aassI13
(dp159
g2
I58
sg3
(lp160
(lp161
I1
aI0
aI1
aI0
aI0
aI1
aI0
aI0
aI1
aI1
aa(lp162
I1
aI1
aI1
aI1
aI0
aI0
aI1
aI0
aI0
aI0
aa(lp163
I1
aI1
aI1
aI0
aI1
aI1
aI1
aI1
aI1
aI1
aa(lp164
I1
aI1
aI1
aI1
aI1
aI1
aI0
aI0
aI0
aI0
aa(lp165
I0
aI0
aI1
aI0
aI1
aI0
aI1
aI0
aI0
aI0
aa(lp166
I1
aI0
aI0
aI0
aI1
aI0
aI1
aI1
aI1
aI1
aa(lp167
I1
aI1
aI0
aI0
aI0
aI1
aI1
aI1
aI1
aI1
aa(lp168
I1
aI1
aI1
aI0
aI1
aI0
aI0
aI0
aI1
aI1
aa(lp169
I1
aI0
aI0
aI0
aI0
aI0
aI1
aI1
aI1
aI1
aa(lp170
I0
aI1
aI1
aI0
aI1
aI1
aI1
aI0
aI1
aI0
aassI14
(dp171
g2
I21
sg3
(lp172
(lp173
I0
aI0
aI1
aI0
aI0
aI1
aI0
aI1
aI0
aI0
aa(lp174
I0
aI0
aI0
aI0
aI0
aI0
aI1
aI0
aI0
aI0
aa(lp175
I0
aI0
aI1
aI1
aI0
aI1
aI0
aI0
aI0
aI0
aa(lp176
I0
aI0
aI0
aI0
aI0
aI0
aI0
aI1
aI0
aI1
aa(lp177
I0
aI0
aI0
aI1
aI1
aI0
aI0
aI0
aI0
aI0
aa(lp178
I0
aI1
aI0
aI0
aI0
aI0
aI1
aI0
aI0
aI1
aa(lp179
I0
aI0
aI0
aI0
aI0
aI0
aI1
aI0
aI0
aI1
aa(lp180
I0
aI0
aI1
aI0
aI0
aI0
aI0
aI0
aI1
aI0
aa(lp181
I0
aI0
aI0
aI0
aI0
aI0
aI1
aI1
aI0
aI0
aa(lp182
I0
aI0
aI0
aI0
aI0
aI0
aI1
aI0
aI0
aI0
aassI15
(dp183
g2
I20
sg3
(lp184
(lp185
I1
aI0
aI0
aI0
aI1
aI0
aI0
aI0
aI0
aI0
aa(lp186
I0
aI0
aI0
aI0
aI0
aI0
aI0
aI0
aI1
aI0
aa(lp187
I0
aI0
aI0
aI0
aI0
aI1
aI0
aI0
aI0
aI1
aa(lp188
I0
aI1
aI1
aI0
aI0
aI0
aI1
aI0
aI0
aI0
aa(lp189
I0
aI0
aI1
aI0
aI0
aI1
aI0
aI0
aI0
aI0
aa(lp190
I0
aI0
aI0
aI1
aI0
aI0
aI0
aI0
aI0
aI1
aa(lp191
I0
aI1
aI0
aI1
aI0
aI1
aI0
aI0
aI1
aI0
aa(lp192
I0
aI1
aI0
aI0
aI0
aI0
aI0
aI0
aI0
aI0
aa(lp193
I0
aI0
aI1
aI0
aI0
aI0
aI0
aI1
aI0
aI0
aa(lp194
I0
aI0
aI0
aI0
aI0
aI0
aI1
aI0
aI0
aI0
aassI16
(dp195
g2
I48
sg3
(lp196
(lp197
I0
aI1
aI1
aI1
aI1
aI0
aI0
aI1
aI0
aI0
aa(lp198
I1
aI1
aI0
aI0
aI0
aI1
aI1
aI0
aI0
aI1
aa(lp199
I0
aI1
aI0
aI0
aI0
aI0
aI0
aI1
aI1
aI1
aa(lp200
I0
aI1
aI0
aI1
aI0
aI0
aI0
aI0
aI1
aI0
aa(lp201
I1
aI1
aI1
aI0
aI0
aI1
aI1
aI0
aI1
aI0
aa(lp202
I0
aI0
aI1
aI1
aI0
aI0
aI0
aI1
aI0
aI1
aa(lp203
I0
aI1
aI1
aI0
aI0
aI1
aI1
aI0
aI1
aI0
aa(lp204
I1
aI1
aI0
aI1
aI1
aI1
aI0
aI0
aI0
aI1
aa(lp205
I1
aI0
aI1
aI1
aI0
aI1
aI1
aI0
aI1
aI1
aa(lp206
I1
aI0
aI0
aI1
aI0
aI0
aI0
aI0
aI1
aI0
aassI17
(dp207
g2
I60
sg3
(lp208
(lp209
I0
aI1
aI1
aI1
aI1
aI1
aI1
aI1
aI0
aI0
aa(lp210
I1
aI1
aI1
aI0
aI1
aI1
aI0
aI1
aI0
aI0
aa(lp211
I0
aI0
aI1
aI0
aI0
aI0
aI1
aI0
aI1
aI1
aa(lp212
I0
aI1
aI1
aI0
aI1
aI0
aI1
aI1
aI1
aI0
aa(lp213
I1
aI1
aI0
aI1
aI1
aI0
aI0
aI1
aI1
aI0
aa(lp214
I1
aI1
aI0
aI1
aI1
aI1
aI1
aI0
aI0
aI1
aa(lp215
I1
aI1
aI1
aI0
aI1
aI1
aI0
aI1
aI1
aI1
aa(lp216
I1
aI0
aI1
aI1
aI0
aI1
aI1
aI0
aI1
aI0
aa(lp217
I1
aI1
aI1
aI0
aI0
aI0
aI0
aI0
aI0
aI1
aa(lp218
I1
aI0
aI1
aI1
aI0
aI1
aI1
aI0
aI1
aI0
aassI18
(dp219
g2
I24
sg3
(lp220
(lp221
I1
aI0
aI1
aI0
aI0
aI0
aI0
aI0
aI0
aI0
aa(lp222
I1
aI0
aI0
aI0
aI1
aI0
aI1
aI0
aI0
aI0
aa(lp223
I1
aI0
aI0
aI0
aI0
aI0
aI0
aI0
aI0
aI0
aa(lp224
I0
aI0
aI1
aI0
aI0
aI0
aI1
aI0
aI1
aI0
aa(lp225
I0
aI1
aI0
aI0
aI1
aI0
aI0
aI0
aI0
aI0
aa(lp226
I0
aI0
aI0
aI1
aI1
aI0
aI0
aI0
aI0
aI0
aa(lp227
I0
aI0
aI0
aI0
aI0
aI1
aI0
aI0
aI1
aI0
aa(lp228
I0
aI1
aI0
aI0
aI0
aI0
aI0
aI0
aI0
aI1
aa(lp229
I0
aI0
aI0
aI0
aI0
aI0
aI0
aI0
aI0
aI1
aa(lp230
I1
aI0
aI1
aI0
aI1
aI0
aI0
aI1
aI1
aI1
aassI19
(dp231
g2
I6
sg3
(lp232
(lp233
I0
aI1
aI0
aI0
aI1
aI0
aI0
aI0
aI0
aI0
aa(lp234
I0
aI0
aI0
aI0
aI0
aI0
aI0
aI1
aI0
aI0
aa(lp235
I0
aI0
aI0
aI0
aI0
aI0
aI0
aI0
aI0
aI0
aa(lp236
I0
aI0
aI0
aI0
aI0
aI0
aI0
aI0
aI0
aI0
aa(lp237
I0
aI0
aI0
aI0
aI0
aI0
aI0
aI0
aI1
aI0
aa(lp238
I0
aI0
aI0
aI0
aI0
aI0
aI0
aI0
aI0
aI0
aa(lp239
I0
aI0
aI1
aI0
aI0
aI0
aI0
aI0
aI0
aI0
aa(lp240
I0
aI0
aI0
aI0
aI0
aI0
aI0
aI0
aI0
aI0
aa(lp241
I0
aI0
aI0
aI0
aI0
aI0
aI0
aI0
aI0
aI0
aa(lp242
I1
aI0
aI0
aI0
aI0
aI0
aI0
aI0
aI0
aI0
aassI20
(dp243
g2
I82
sg3
(lp244
(lp245
I1
aI1
aI0
aI1
aI0
aI1
aI1
aI1
aI0
aI1
aa(lp246
I1
aI1
aI0
aI1
aI1
aI1
aI1
aI1
aI1
aI1
aa(lp247
I0
aI0
aI1
aI1
aI0
aI1
aI1
aI1
aI1
aI1
aa(lp248
I1
aI0
aI1
aI1
aI1
aI1
aI1
aI1
aI1
aI0
aa(lp249
I0
aI0
aI0
aI1
aI1
aI1
aI1
aI1
aI0
aI1
aa(lp250
I1
aI1
aI1
aI1
aI1
aI1
aI0
aI1
aI1
aI1
aa(lp251
I1
aI1
aI1
aI1
aI1
aI1
aI1
aI1
aI1
aI1
aa(lp252
I0
aI1
aI1
aI1
aI1
aI1
aI1
aI1
aI1
aI1
aa(lp253
I1
aI1
aI1
aI1
aI1
aI1
aI1
aI1
aI1
aI1
aa(lp254
I0
aI1
aI0
aI1
aI1
aI1
aI1
aI1
aI1
aI0
aassI21
(dp255
g2
I65
sg3
(lp256
(lp257
I1
aI1
aI1
aI1
aI1
aI0
aI1
aI1
aI1
aI1
aa(lp258
I1
aI1
aI1
aI0
aI1
aI1
aI0
aI0
aI1
aI0
aa(lp259
I1
aI1
aI1
aI1
aI1
aI1
aI0
aI0
aI1
aI1
aa(lp260
I0
aI1
aI1
aI1
aI0
aI1
aI1
aI0
aI0
aI0
aa(lp261
I1
aI0
aI0
aI1
aI0
aI1
aI0
aI0
aI1
aI1
aa(lp262
I0
aI1
aI0
aI0
aI1
aI1
aI1
aI1
aI1
aI1
aa(lp263
I0
aI1
aI1
aI0
aI1
aI1
aI1
aI1
aI0
aI1
aa(lp264
I1
aI0
aI1
aI1
aI1
aI1
aI1
aI0
aI1
aI0
aa(lp265
I0
aI0
aI0
aI1
aI0
aI1
aI1
aI1
aI1
aI0
aa(lp266
I1
aI0
aI1
aI0
aI1
aI1
aI0
aI1
aI0
aI1
aassI22
(dp267
g2
I48
sg3
(lp268
(lp269
I0
aI1
aI1
aI0
aI0
aI1
aI1
aI1
aI0
aI1
aa(lp270
I1
aI1
aI0
aI0
aI0
aI0
aI0
aI0
aI0
aI0
aa(lp271
I0
aI1
aI0
aI0
aI0
aI1
aI1
aI0
aI0
aI0
aa(lp272
I1
aI0
aI1
aI1
aI1
aI1
aI0
aI0
aI1
aI0
aa(lp273
I0
aI1
aI0
aI0
aI1
aI1
aI0
aI0
aI1
aI1
aa(lp274
I0
aI1
aI0
aI1
aI0
aI1
aI0
aI1
aI1
aI1
aa(lp275
I1
aI0
aI0
aI0
aI1
aI1
aI1
aI1
aI1
aI1
aa(lp276
I1
aI0
aI0
aI0
aI1
aI1
aI1
aI1
aI0
aI0
aa(lp277
I1
aI1
aI0
aI1
aI0
aI1
aI0
aI0
aI1
aI1
aa(lp278
I0
aI0
aI1
aI0
aI1
aI0
aI0
aI0
aI0
aI0
aassI23
(dp279
g2
I65
sg3
(lp280
(lp281
I1
aI1
aI1
aI0
aI0
aI1
aI1
aI0
aI1
aI1
aa(lp282
I0
aI0
aI1
aI1
aI0
aI1
aI0
aI1
aI1
aI1
aa(lp283
I1
aI0
aI1
aI1
aI0
aI0
aI1
aI0
aI0
aI1
aa(lp284
I1
aI0
aI1
aI1
aI1
aI1
aI1
aI1
aI1
aI1
aa(lp285
I1
aI1
aI1
aI1
aI0
aI1
aI1
aI1
aI0
aI1
aa(lp286
I1
aI1
aI1
aI1
aI0
aI0
aI1
aI1
aI1
aI1
aa(lp287
I1
aI0
aI1
aI1
aI0
aI1
aI0
aI1
aI0
aI0
aa(lp288
I1
aI1
aI1
aI1
aI1
aI0
aI1
aI0
aI0
aI0
aa(lp289
I1
aI1
aI1
aI1
aI1
aI0
aI1
aI0
aI0
aI0
aa(lp290
I1
aI1
aI0
aI1
aI0
aI0
aI1
aI0
aI1
aI0
aassI24
(dp291
g2
I56
sg3
(lp292
(lp293
I1
aI0
aI0
aI1
aI1
aI1
aI1
aI1
aI0
aI0
aa(lp294
I1
aI1
aI1
aI0
aI0
aI1
aI0
aI0
aI0
aI0
aa(lp295
I0
aI1
aI0
aI1
aI0
aI0
aI1
aI0
aI0
aI1
aa(lp296
I1
aI0
aI1
aI0
aI0
aI0
aI0
aI1
aI0
aI1
aa(lp297
I1
aI1
aI1
aI1
aI1
aI0
aI1
aI1
aI0
aI0
aa(lp298
I0
aI1
aI0
aI1
aI1
aI1
aI0
aI0
aI0
aI1
aa(lp299
I1
aI0
aI1
aI1
aI1
aI1
aI1
aI1
aI1
aI1
aa(lp300
I1
aI1
aI0
aI1
aI1
aI1
aI0
aI1
aI1
aI0
aa(lp301
I1
aI1
aI1
aI0
aI0
aI0
aI1
aI1
aI1
aI0
aa(lp302
I0
aI1
aI1
aI0
aI0
aI0
aI1
aI0
aI1
aI0
aassI25
(dp303
g2
I88
sg3
(lp304
(lp305
I1
aI1
aI1
aI1
aI0
aI1
aI1
aI1
aI1
aI1
aa(lp306
I1
aI1
aI1
aI1
aI1
aI1
aI1
aI1
aI1
aI1
aa(lp307
I1
aI1
aI1
aI1
aI0
aI1
aI0
aI1
aI1
aI1
aa(lp308
I1
aI1
aI0
aI1
aI1
aI0
aI1
aI1
aI1
aI1
aa(lp309
I1
aI1
aI1
aI1
aI1
aI1
aI1
aI1
aI1
aI1
aa(lp310
I1
aI1
aI1
aI1
aI1
aI1
aI1
aI0
aI1
aI1
aa(lp311
I1
aI1
aI1
aI1
aI1
aI0
aI1
aI1
aI0
aI1
aa(lp312
I1
aI1
aI1
aI1
aI1
aI1
aI1
aI1
aI1
aI1
aa(lp313
I1
aI1
aI1
aI0
aI1
aI1
aI1
aI1
aI1
aI1
aa(lp314
I0
aI1
aI1
aI0
aI1
aI0
aI1
aI1
aI1
aI1
aassI26
(dp315
g2
I1
sg3
(lp316
(lp317
I0
aI0
aI0
aI0
aI0
aI0
aI0
aI0
aI0
aI0
aa(lp318
I0
aI0
aI0
aI0
aI0
aI0
aI0
aI0
aI0
aI0
aa(lp319
I0
aI0
aI0
aI0
aI0
aI0
aI0
aI0
aI0
aI0
aa(lp320
I0
aI0
aI0
aI0
aI0
aI0
aI0
aI0
aI0
aI0
aa(lp321
I0
aI0
aI0
aI0
aI0
aI0
aI0
aI0
aI0
aI0
aa(lp322
I0
aI0
aI0
aI0
aI0
aI0
aI0
aI0
aI0
aI0
aa(lp323
I0
aI0
aI0
aI0
aI0
aI0
aI0
aI0
aI0
aI0
aa(lp324
I0
aI0
aI0
aI0
aI0
aI0
aI0
aI0
aI0
aI0
aa(lp325
I0
aI0
aI0
aI0
aI0
aI0
aI0
aI0
aI0
aI0
aa(lp326
I0
aI0
aI0
aI0
aI0
aI0
aI0
aI0
aI0
aI0
aa(lp327
I0
aI0
aI0
aI0
aI0
aI0
aI0
aI0
aI0
aI0
aa(lp328
I0
aI0
aI0
aI0
aI0
aI0
aI0
aI0
aI0
aI0
aa(lp329
I0
aI0
aI0
aI0
aI0
aI0
aI0
aI0
aI0
aI0
aa(lp330
I0
aI0
aI0
aI0
aI0
aI0
aI0
aI0
aI0
aI0
aa(lp331
I0
aI0
aI0
aI0
aI0
aI0
aI0
aI0
aI0
aI0
aa(lp332
I0
aI0
aI0
aI0
aI0
aI0
aI0
aI0
aI0
aI0
aa(lp333
I0
aI0
aI0
aI0
aI0
aI0
aI0
aI0
aI0
aI0
aa(lp334
I0
aI0
aI0
aI0
aI0
aI0
aI0
aI0
aI0
aI0
aa(lp335
I0
aI0
aI0
aI0
aI0
aI0
aI0
aI0
aI0
aI0
aa(lp336
I0
aI0
aI0
aI0
aI0
aI0
aI0
aI0
aI0
aI0
aa(lp337
I0
aI0
aI0
aI0
aI0
aI0
aI0
aI0
aI0
aI0
aa(lp338
I0
aI0
aI0
aI0
aI0
aI0
aI0
aI0
aI0
aI0
aa(lp339
I0
aI0
aI0
aI0
aI0
aI0
aI0
aI0
aI0
aI0
aa(lp340
I0
aI0
aI0
aI0
aI0
aI0
aI0
aI0
aI0
aI0
aa(lp341
I0
aI0
aI0
aI0
aI0
aI0
aI0
aI0
aI0
aI0
aa(lp342
I0
aI0
aI0
aI0
aI0
aI0
aI0
aI0
aI0
aI0
aa(lp343
I0
aI0
aI0
aI0
aI0
aI0
aI0
aI0
aI0
aI0
aa(lp344
I0
aI0
aI0
aI0
aI0
aI0
aI0
aI0
aI0
aI0
aa(lp345
I0
aI0
aI0
aI0
aI0
aI0
aI0
aI0
aI0
aI0
aa(lp346
I0
aI0
aI0
aI0
aI0
aI0
aI0
aI0
aI0
aI0
aa(lp347
I0
aI0
aI0
aI0
aI0
aI0
aI0
aI0
aI0
aI0
aa(lp348
I0
aI0
aI0
aI0
aI0
aI0
aI0
aI0
aI0
aI0
aa(lp349
I0
aI0
aI0
aI0
aI0
aI0
aI0
aI0
aI0
aI0
aa(lp350
I0
aI0
aI0
aI0
aI0
aI0
aI0
aI0
aI0
aI0
aa(lp351
I0
aI0
aI0
aI0
aI0
aI0
aI0
aI0
aI0
aI0
aa(lp352
I0
aI0
aI0
aI0
aI0
aI0
aI0
aI0
aI0
aI0
aa(lp353
I0
aI0
aI0
aI0
aI0
aI0
aI0
aI0
aI0
aI0
aa(lp354
I0
aI0
aI0
aI0
aI0
aI0
aI0
aI0
aI0
aI0
aa(lp355
I0
aI0
aI0
aI0
aI0
aI0
aI0
aI0
aI0
aI0
aa(lp356
I0
aI0
aI0
aI0
aI0
aI0
aI0
aI0
aI0
aI0
aa(lp357
I0
aI0
aI0
aI0
aI0
aI0
aI0
aI0
aI0
aI0
aa(lp358
I0
aI0
aI0
aI0
aI0
aI0
aI0
aI0
aI0
aI0
aa(lp359
I0
aI0
aI0
aI0
aI0
aI0
aI0
aI0
aI0
aI0
aa(lp360
I0
aI0
aI0
aI0
aI0
aI0
aI0
aI0
aI0
aI0
aa(lp361
I0
aI0
aI0
aI0
aI0
aI0
aI0
aI0
aI0
aI0
aa(lp362
I0
aI0
aI0
aI0
aI0
aI0
aI0
aI0
aI0
aI0
aa(lp363
I0
aI0
aI0
aI0
aI0
aI0
aI0
aI0
aI0
aI0
aa(lp364
I0
aI0
aI0
aI0
aI0
aI0
aI0
aI0
aI0
aI0
aa(lp365
I0
aI0
aI0
aI0
aI0
aI0
aI0
aI0
aI0
aI0
aa(lp366
I0
aI0
aI0
aI0
aI0
aI0
aI0
aI0
aI0
aI0
aa(lp367
I0
aI0
aI0
aI0
aI0
aI0
aI0
aI0
aI0
aI0
aa(lp368
I0
aI0
aI0
aI0
aI0
aI0
aI0
aI0
aI0
aI0
aa(lp369
I0
aI0
aI0
aI0
aI0
aI1
aI0
aI0
aI0
aI0
aa(lp370
I0
aI0
aI0
aI0
aI0
aI0
aI0
aI0
aI0
aI0
aa(lp371
I0
aI0
aI0
aI0
aI0
aI0
aI0
aI0
aI0
aI0
aa(lp372
I0
aI0
aI0
aI0
aI0
aI0
aI0
aI0
aI0
aI0
aa(lp373
I0
aI0
aI0
aI0
aI0
aI0
aI0
aI0
aI0
aI0
aa(lp374
I0
aI0
aI0
aI0
aI0
aI0
aI0
aI0
aI0
aI0
aa(lp375
I0
aI0
aI0
aI0
aI0
aI0
aI0
aI0
aI0
aI0
aa(lp376
I0
aI0
aI0
aI0
aI0
aI0
aI0
aI0
aI0
aI0
aassI27
(dp377
g2
I60
sg3
(lp378
(lp379
I1
aI1
aI1
aI1
aI0
aI1
aI0
aI1
aI1
aI0
aa(lp380
I1
aI1
aI1
aI0
aI0
aI0
aI1
aI1
aI0
aI1
aa(lp381
I1
aI0
aI1
aI1
aI1
aI0
aI1
aI0
aI1
aI1
aa(lp382
I1
aI0
aI0
aI1
aI0
aI1
aI0
aI1
aI0
aI1
aa(lp383
I0
aI1
aI1
aI0
aI1
aI1
aI0
aI1
aI1
aI1
aa(lp384
I1
aI1
aI0
aI0
aI1
aI1
aI0
aI1
aI0
aI1
aa(lp385
I1
aI0
aI1
aI1
aI0
aI1
aI0
aI1
aI1
aI1
aa(lp386
I0
aI1
aI0
aI0
aI0
aI1
aI1
aI0
aI1
aI1
aa(lp387
I0
aI0
aI1
aI0
aI1
aI0
aI1
aI1
aI0
aI1
aa(lp388
I1
aI1
aI0
aI1
aI1
aI0
aI0
aI0
aI1
aI0
aassI28
(dp389
g2
I49
sg3
(lp390
(lp391
I0
aI0
aI0
aI0
aI0
aI0
aI1
aI0
aI1
aI1
aa(lp392
I0
aI0
aI1
aI0
aI1
aI0
aI0
aI1
aI0
aI1
aa(lp393
I0
aI1
aI0
aI1
aI0
aI0
aI0
aI0
aI0
aI1
aa(lp394
I0
aI1
aI0
aI0
aI0
aI1
aI0
aI1
aI1
aI0
aa(lp395
I0
aI1
aI1
aI0
aI1
aI1
aI1
aI1
aI1
aI1
aa(lp396
I1
aI0
aI0
aI1
aI1
aI0
aI0
aI0
aI1
aI1
aa(lp397
I1
aI1
aI0
aI1
aI1
aI1
aI0
aI0
aI0
aI1
aa(lp398
I1
aI0
aI0
aI1
aI1
aI0
aI0
aI0
aI0
aI1
aa(lp399
I0
aI0
aI0
aI1
aI1
aI1
aI1
aI0
aI0
aI1
aa(lp400
I1
aI0
aI1
aI1
aI1
aI1
aI0
aI1
aI0
aI1
aassI29
(dp401
g2
I98
sg3
(lp402
(lp403
I1
aI1
aI1
aI1
aI1
aI1
aI1
aI1
aI1
aI1
aa(lp404
I1
aI1
aI1
aI1
aI1
aI1
aI1
aI1
aI1
aI1
aa(lp405
I1
aI1
aI1
aI1
aI1
aI1
aI1
aI1
aI1
aI1
aa(lp406
I1
aI1
aI1
aI1
aI1
aI1
aI1
aI1
aI1
aI1
aa(lp407
I1
aI1
aI1
aI1
aI1
aI1
aI1
aI1
aI1
aI1
aa(lp408
I0
aI1
aI1
aI1
aI1
aI1
aI1
aI1
aI1
aI1
aa(lp409
I1
aI1
aI1
aI1
aI1
aI1
aI1
aI1
aI1
aI1
aa(lp410
I1
aI1
aI1
aI1
aI1
aI1
aI1
aI1
aI1
aI1
aa(lp411
I1
aI0
aI1
aI1
aI1
aI1
aI1
aI1
aI1
aI1
aa(lp412
I1
aI1
aI1
aI1
aI1
aI1
aI1
aI1
aI1
aI1
aassI30
(dp413
g2
I74
sg3
(lp414
(lp415
I0
aI0
aI1
aI1
aI0
aI1
aI0
aI1
aI1
aI1
aa(lp416
I1
aI1
aI1
aI0
aI0
aI1
aI1
aI0
aI1
aI0
aa(lp417
I1
aI1
aI1
aI0
aI0
aI1
aI1
aI1
aI0
aI1
aa(lp418
I1
aI1
aI1
aI1
aI1
aI1
aI1
aI1
aI1
aI0
aa(lp419
I1
aI1
aI1
aI0
aI0
aI1
aI1
aI1
aI1
aI1
aa(lp420
I1
aI1
aI0
aI1
aI1
aI0
aI0
aI0
aI1
aI1
aa(lp421
I0
aI1
aI1
aI0
aI1
aI0
aI0
aI1
aI1
aI0
aa(lp422
I1
aI1
aI1
aI1
aI1
aI1
aI1
aI1
aI1
aI0
aa(lp423
I1
aI0
aI1
aI1
aI0
aI1
aI1
aI1
aI1
aI1
aa(lp424
I1
aI1
aI1
aI1
aI1
aI1
aI1
aI1
aI1
aI1
aassI31
(dp425
g2
I41
sg3
(lp426
(lp427
I0
aI1
aI0
aI0
aI0
aI0
aI0
aI1
aI0
aI1
aa(lp428
I0
aI1
aI1
aI0
aI1
aI1
aI0
aI0
aI0
aI1
aa(lp429
I0
aI1
aI0
aI0
aI1
aI1
aI0
aI0
aI0
aI0
aa(lp430
I1
aI1
aI1
aI0
aI0
aI1
aI1
aI1
aI0
aI1
aa(lp431
I1
aI0
aI0
aI1
aI1
aI0
aI0
aI0
aI0
aI0
aa(lp432
I1
aI1
aI1
aI1
aI1
aI0
aI1
aI1
aI0
aI0
aa(lp433
I1
aI0
aI0
aI0
aI0
aI0
aI0
aI1
aI1
aI0
aa(lp434
I1
aI0
aI1
aI1
aI0
aI0
aI0
aI0
aI0
aI0
aa(lp435
I1
aI0
aI0
aI0
aI0
aI0
aI1
aI1
aI0
aI0
aa(lp436
I0
aI0
aI1
aI0
aI0
aI1
aI0
aI1
aI1
aI0
aassI32
(dp437
g2
I80
sg3
(lp438
(lp439
I1
aI1
aI0
aI1
aI1
aI1
aI1
aI1
aI1
aI1
aa(lp440
I1
aI1
aI1
aI1
aI1
aI1
aI1
aI1
aI0
aI0
aa(lp441
I0
aI1
aI1
aI1
aI1
aI1
aI1
aI1
aI1
aI1
aa(lp442
I1
aI1
aI1
aI1
aI1
aI1
aI1
aI1
aI1
aI0
aa(lp443
I1
aI1
aI0
aI1
aI0
aI0
aI1
aI0
aI1
aI1
aa(lp444
I1
aI1
aI1
aI1
aI1
aI1
aI1
aI1
aI0
aI1
aa(lp445
I0
aI1
aI0
aI1
aI1
aI0
aI1
aI0
aI1
aI1
aa(lp446
I1
aI1
aI1
aI1
aI1
aI0
aI1
aI1
aI1
aI0
aa(lp447
I1
aI1
aI1
aI1
aI1
aI1
aI0
aI1
aI1
aI1
aa(lp448
I0
aI0
aI1
aI0
aI1
aI1
aI1
aI1
aI1
aI1
aassI33
(dp449
g2
I28
sg3
(lp450
(lp451
I0
aI0
aI1
aI0
aI0
aI1
aI0
aI0
aI0
aI0
aa(lp452
I0
aI1
aI1
aI1
aI0
aI0
aI0
aI1
aI0
aI0
aa(lp453
I1
aI0
aI0
aI0
aI0
aI0
aI0
aI0
aI0
aI0
aa(lp454
I0
aI0
aI0
aI1
aI0
aI0
aI1
aI0
aI0
aI0
aa(lp455
I1
aI1
aI1
aI1
aI1
aI0
aI1
aI0
aI0
aI0
aa(lp456
I0
aI0
aI1
aI0
aI0
aI1
aI0
aI0
aI0
aI0
aa(lp457
I0
aI0
aI0
aI0
aI0
aI0
aI0
aI0
aI0
aI0
aa(lp458
I0
aI0
aI0
aI0
aI1
aI1
aI0
aI0
aI1
aI0
aa(lp459
I0
aI0
aI1
aI1
aI0
aI1
aI1
aI0
aI0
aI1
aa(lp460
I0
aI0
aI1
aI1
aI0
aI0
aI1
aI0
aI0
aI0
aassI34
(dp461
g2
I57
sg3
(lp462
(lp463
I1
aI0
aI0
aI1
aI0
aI1
aI0
aI1
aI1
aI1
aa(lp464
I0
aI0
aI1
aI0
aI1
aI1
aI1
aI0
aI0
aI1
aa(lp465
I0
aI1
aI0
aI0
aI0
aI1
aI0
aI0
aI0
aI0
aa(lp466
I1
aI1
aI1
aI1
aI1
aI1
aI1
aI1
aI0
aI0
aa(lp467
I1
aI1
aI1
aI0
aI1
aI0
aI1
aI1
aI0
aI0
aa(lp468
I1
aI0
aI1
aI0
aI1
aI1
aI1
aI0
aI0
aI1
aa(lp469
I1
aI1
aI0
aI1
aI1
aI1
aI0
aI1
aI1
aI1
aa(lp470
I0
aI1
aI1
aI1
aI0
aI1
aI1
aI0
aI1
aI0
aa(lp471
I0
aI0
aI0
aI0
aI0
aI1
aI0
aI0
aI1
aI1
aa(lp472
I1
aI0
aI1
aI1
aI1
aI1
aI1
aI0
aI0
aI1
aassI35
(dp473
g2
I5
sg3
(lp474
(lp475
I0
aI0
aI0
aI0
aI0
aI0
aI0
aI0
aI0
aI0
aa(lp476
I0
aI0
aI0
aI0
aI0
aI0
aI0
aI0
aI0
aI0
aa(lp477
I0
aI0
aI1
aI1
aI0
aI0
aI1
aI0
aI0
aI0
aa(lp478
I0
aI0
aI0
aI0
aI0
aI0
aI0
aI0
aI0
aI0
aa(lp479
I0
aI0
aI0
aI0
aI0
aI0
aI0
aI0
aI0
aI0
aa(lp480
I0
aI0
aI0
aI0
aI0
aI0
aI0
aI0
aI0
aI0
aa(lp481
I0
aI0
aI0
aI0
aI0
aI0
aI0
aI0
aI0
aI0
aa(lp482
I0
aI0
aI0
aI0
aI0
aI0
aI0
aI0
aI0
aI0
aa(lp483
I0
aI0
aI0
aI0
aI0
aI0
aI0
aI0
aI0
aI0
aa(lp484
I0
aI0
aI1
aI0
aI0
aI0
aI0
aI1
aI0
aI0
aassI36
(dp485
g2
I65
sg3
(lp486
(lp487
I1
aI1
aI0
aI0
aI1
aI1
aI0
aI1
aI1
aI1
aa(lp488
I1
aI0
aI1
aI0
aI0
aI0
aI0
aI0
aI0
aI0
aa(lp489
I1
aI1
aI0
aI0
aI0
aI1
aI1
aI1
aI0
aI1
aa(lp490
I1
aI1
aI1
aI1
aI1
aI1
aI1
aI1
aI0
aI0
aa(lp491
I1
aI1
aI1
aI1
aI1
aI1
aI1
aI1
aI1
aI1
aa(lp492
I1
aI0
aI1
aI1
aI1
aI1
aI1
aI1
aI0
aI1
aa(lp493
I0
aI0
aI1
aI1
aI0
aI1
aI0
aI1
aI1
aI0
aa(lp494
I1
aI0
aI1
aI0
aI0
aI1
aI1
aI1
aI1
aI1
aa(lp495
I0
aI1
aI1
aI0
aI1
aI0
aI1
aI0
aI1
aI1
aa(lp496
I0
aI0
aI1
aI1
aI0
aI1
aI1
aI1
aI0
aI1
aassI37
(dp497
g2
I23
sg3
(lp498
(lp499
I0
aI0
aI0
aI0
aI0
aI0
aI0
aI0
aI1
aI0
aa(lp500
I0
aI1
aI0
aI0
aI0
aI0
aI1
aI0
aI0
aI0
aa(lp501
I0
aI1
aI0
aI1
aI0
aI0
aI0
aI0
aI1
aI0
aa(lp502
I0
aI0
aI0
aI0
aI1
aI0
aI1
aI1
aI1
aI0
aa(lp503
I0
aI0
aI1
aI0
aI0
aI1
aI1
aI1
aI0
aI0
aa(lp504
I0
aI0
aI1
aI1
aI0
aI0
aI0
aI1
aI0
aI0
aa(lp505
I0
aI1
aI0
aI0
aI1
aI0
aI0
aI0
aI0
aI1
aa(lp506
I0
aI0
aI0
aI0
aI0
aI0
aI0
aI0
aI1
aI0
aa(lp507
I0
aI0
aI0
aI0
aI0
aI0
aI0
aI0
aI0
aI0
aa(lp508
I0
aI0
aI0
aI0
aI0
aI0
aI1
aI0
aI1
aI0
aassI38
(dp509
g2
I87
sg3
(lp510
(lp511
I1
aI1
aI1
aI0
aI1
aI0
aI1
aI1
aI1
aI1
aa(lp512
I1
aI1
aI1
aI1
aI1
aI0
aI1
aI1
aI1
aI1
aa(lp513
I1
aI1
aI1
aI1
aI1
aI1
aI1
aI1
aI1
aI0
aa(lp514
I1
aI1
aI1
aI0
aI0
aI1
aI1
aI1
aI1
aI1
aa(lp515
I1
aI1
aI0
aI1
aI1
aI1
aI1
aI0
aI1
aI1
aa(lp516
I1
aI1
aI1
aI1
aI1
aI0
aI1
aI1
aI1
aI1
aa(lp517
I1
aI1
aI1
aI1
aI1
aI1
aI1
aI1
aI0
aI1
aa(lp518
I1
aI1
aI1
aI1
aI1
aI1
aI1
aI1
aI1
aI1
aa(lp519
I1
aI1
aI1
aI1
aI1
aI1
aI1
aI1
aI0
aI1
aa(lp520
I0
aI1
aI1
aI1
aI1
aI1
aI1
aI1
aI0
aI1
aassI39
(dp521
g2
I78
sg3
(lp522
(lp523
I1
aI0
aI0
aI0
aI1
aI1
aI1
aI1
aI1
aI0
aa(lp524
I1
aI1
aI1
aI1
aI1
aI1
aI1
aI0
aI0
aI1
aa(lp525
I1
aI1
aI0
aI1
aI1
aI0
aI1
aI1
aI1
aI0
aa(lp526
I1
aI1
aI1
aI1
aI1
aI0
aI0
aI1
aI1
aI1
aa(lp527
I1
aI1
aI1
aI0
aI0
aI1
aI0
aI1
aI0
aI1
aa(lp528
I1
aI1
aI1
aI1
aI1
aI1
aI1
aI1
aI1
aI0
aa(lp529
I1
aI1
aI0
aI1
aI1
aI0
aI1
aI1
aI1
aI1
aa(lp530
I1
aI1
aI1
aI1
aI1
aI0
aI1
aI1
aI1
aI1
aa(lp531
I1
aI1
aI1
aI1
aI1
aI0
aI0
aI1
aI1
aI1
aa(lp532
I1
aI1
aI1
aI1
aI1
aI0
aI1
aI1
aI1
aI1
aassI40
(dp533
g2
I93
sg3
(lp534
(lp535
I1
aI1
aI1
aI1
aI1
aI1
aI1
aI1
aI1
aI1
aa(lp536
I1
aI1
aI1
aI1
aI1
aI1
aI1
aI1
aI1
aI1
aa(lp537
I1
aI1
aI1
aI1
aI1
aI1
aI1
aI1
aI1
aI1
aa(lp538
I0
aI1
aI1
aI1
aI1
aI1
aI1
aI1
aI1
aI1
aa(lp539
I0
aI1
aI0
aI1
aI1
aI1
aI1
aI1
aI1
aI1
aa(lp540
I1
aI1
aI1
aI1
aI1
aI1
aI1
aI1
aI1
aI1
aa(lp541
I1
aI1
aI1
aI1
aI1
aI1
aI0
aI0
aI1
aI1
aa(lp542
I1
aI1
aI1
aI1
aI1
aI0
aI1
aI1
aI1
aI0
aa(lp543
I1
aI1
aI1
aI1
aI1
aI1
aI1
aI1
aI1
aI1
aa(lp544
I1
aI1
aI1
aI1
aI1
aI1
aI1
aI1
aI1
aI1
aassI41
(dp545
g2
I15
sg3
(lp546
(lp547
I1
aI1
aI0
aI0
aI0
aI0
aI1
aI0
aI0
aI0
aa(lp548
I0
aI0
aI0
aI0
aI1
aI0
aI0
aI0
aI0
aI0
aa(lp549
I1
aI1
aI0
aI1
aI0
aI0
aI0
aI0
aI1
aI0
aa(lp550
I0
aI0
aI0
aI0
aI0
aI0
aI0
aI0
aI0
aI0
aa(lp551
I1
aI0
aI0
aI0
aI0
aI0
aI0
aI0
aI0
aI0
aa(lp552
I0
aI0
aI0
aI0
aI0
aI0
aI0
aI0
aI0
aI0
aa(lp553
I0
aI0
aI0
aI0
aI0
aI0
aI0
aI0
aI0
aI0
aa(lp554
I0
aI0
aI1
aI1
aI0
aI1
aI0
aI0
aI0
aI0
aa(lp555
I0
aI0
aI0
aI0
aI0
aI0
aI0
aI0
aI0
aI0
aa(lp556
I0
aI1
aI0
aI1
aI0
aI0
aI0
aI0
aI1
aI0
aassI42
(dp557
g2
I100
sg3
(lp558
(lp559
I1
aI1
aI1
aI1
aI1
aI1
aI1
aI1
aI1
aI1
aa(lp560
I1
aI1
aI1
aI1
aI1
aI1
aI1
aI1
aI1
aI1
aa(lp561
I1
aI1
aI1
aI1
aI1
aI1
aI1
aI1
aI1
aI1
aa(lp562
I1
aI1
aI1
aI1
aI1
aI1
aI1
aI1
aI1
aI1
aa(lp563
I1
aI1
aI1
aI1
aI1
aI1
aI1
aI1
aI1
aI1
aa(lp564
I1
aI1
aI1
aI1
aI1
aI1
aI1
aI1
aI1
aI1
aa(lp565
I1
aI1
aI1
aI1
aI1
aI1
aI1
aI1
aI1
aI1
aa(lp566
I1
aI1
aI1
aI1
aI1
aI1
aI1
aI1
aI1
aI1
aa(lp567
I1
aI1
aI1
aI1
aI1
aI1
aI1
aI1
aI1
aI1
aa(lp568
I1
aI1
aI1
aI1
aI1
aI1
aI1
aI1
aI1
aI1
aassI43
(dp569
g2
I62
sg3
(lp570
(lp571
I0
aI1
aI0
aI1
aI0
aI1
aI1
aI0
aI1
aI0
aa(lp572
I1
aI1
aI0
aI0
aI1
aI1
aI1
aI1
aI0
aI1
aa(lp573
I0
aI1
aI1
aI0
aI0
aI0
aI1
aI1
aI1
aI1
aa(lp574
I1
aI1
aI1
aI1
aI1
aI1
aI1
aI1
aI0
aI1
aa(lp575
I0
aI1
aI1
aI0
aI0
aI1
aI0
aI0
aI0
aI1
aa(lp576
I0
aI1
aI0
aI0
aI0
aI1
aI1
aI1
aI1
aI1
aa(lp577
I0
aI0
aI1
aI1
aI1
aI0
aI1
aI1
aI0
aI1
aa(lp578
I1
aI0
aI1
aI1
aI1
aI1
aI1
aI1
aI0
aI1
aa(lp579
I1
aI0
aI1
aI1
aI1
aI1
aI1
aI0
aI0
aI0
aa(lp580
I1
aI1
aI1
aI0
aI0
aI1
aI0
aI0
aI0
aI1
aassI44
(dp581
g2
I97
sg3
(lp582
(lp583
I1
aI1
aI1
aI1
aI1
aI1
aI1
aI1
aI1
aI1
aa(lp584
I1
aI1
aI1
aI1
aI1
aI1
aI1
aI1
aI0
aI1
aa(lp585
I1
aI1
aI1
aI1
aI1
aI1
aI1
aI1
aI1
aI1
aa(lp586
I1
aI1
aI1
aI1
aI1
aI1
aI1
aI1
aI1
aI1
aa(lp587
I1
aI1
aI1
aI0
aI1
aI1
aI1
aI1
aI1
aI1
aa(lp588
I1
aI1
aI1
aI1
aI1
aI1
aI1
aI1
aI1
aI1
aa(lp589
I1
aI1
aI1
aI1
aI1
aI1
aI1
aI1
aI1
aI1
aa(lp590
I1
aI1
aI1
aI1
aI1
aI1
aI0
aI1
aI1
aI1
aa(lp591
I1
aI1
aI1
aI1
aI1
aI1
aI1
aI1
aI1
aI1
aa(lp592
I1
aI1
aI1
aI1
aI1
aI1
aI1
aI1
aI1
aI1
aassI45
(dp593
g2
I88
sg3
(lp594
(lp595
I1
aI0
aI1
aI1
aI1
aI1
aI1
aI1
aI0
aI1
aa(lp596
I0
aI1
aI1
aI1
aI1
aI1
aI1
aI1
aI0
aI1
aa(lp597
I1
aI0
aI1
aI1
aI1
aI1
aI1
aI0
aI1
aI1
aa(lp598
I1
aI1
aI1
aI1
aI1
aI1
aI1
aI1
aI1
aI1
aa(lp599
I1
aI1
aI1
aI1
aI1
aI1
aI1
aI1
aI0
aI1
aa(lp600
I1
aI1
aI1
aI1
aI1
aI1
aI1
aI1
aI1
aI1
aa(lp601
I0
aI1
aI1
aI1
aI1
aI1
aI1
aI1
aI1
aI1
aa(lp602
I1
aI1
aI1
aI1
aI1
aI1
aI0
aI1
aI1
aI1
aa(lp603
I1
aI1
aI1
aI1
aI1
aI0
aI0
aI1
aI1
aI1
aa(lp604
I1
aI1
aI0
aI1
aI1
aI1
aI1
aI1
aI1
aI1
aassI46
(dp605
g2
I20
sg3
(lp606
(lp607
I0
aI0
aI1
aI1
aI0
aI0
aI0
aI0
aI0
aI0
aa(lp608
I0
aI1
aI1
aI0
aI0
aI0
aI1
aI0
aI0
aI0
aa(lp609
I0
aI0
aI0
aI0
aI0
aI1
aI1
aI0
aI0
aI0
aa(lp610
I0
aI1
aI0
aI0
aI0
aI0
aI0
aI0
aI0
aI0
aa(lp611
I1
aI1
aI0
aI0
aI0
aI0
aI0
aI1
aI0
aI0
aa(lp612
I0
aI0
aI0
aI1
aI1
aI0
aI1
aI1
aI0
aI0
aa(lp613
I0
aI0
aI0
aI0
aI0
aI0
aI0
aI1
aI0
aI0
aa(lp614
I1
aI0
aI0
aI0
aI0
aI1
aI0
aI0
aI0
aI0
aa(lp615
I0
aI1
aI0
aI0
aI0
aI0
aI0
aI0
aI0
aI0
aa(lp616
I0
aI0
aI1
aI0
aI0
aI0
aI0
aI0
aI0
aI0
aassI47
(dp617
g2
I74
sg3
(lp618
(lp619
I1
aI0
aI1
aI0
aI1
aI1
aI1
aI1
aI0
aI1
aa(lp620
I1
aI0
aI1
aI1
aI1
aI1
aI0
aI0
aI1
aI1
aa(lp621
I1
aI0
aI1
aI0
aI0
aI1
aI1
aI1
aI0
aI0
aa(lp622
I1
aI1
aI1
aI1
aI1
aI1
aI1
aI1
aI0
aI0
aa(lp623
I1
aI1
aI1
aI1
aI1
aI1
aI0
aI1
aI1
aI1
aa(lp624
I1
aI1
aI0
aI1
aI0
aI1
aI0
aI1
aI1
aI1
aa(lp625
I1
aI1
aI1
aI1
aI0
aI1
aI1
aI0
aI0
aI1
aa(lp626
I1
aI1
aI1
aI1
aI0
aI1
aI0
aI1
aI1
aI1
aa(lp627
I1
aI1
aI1
aI1
aI1
aI1
aI1
aI1
aI1
aI0
aa(lp628
I0
aI1
aI1
aI1
aI1
aI0
aI1
aI0
aI1
aI1
aassI48
(dp629
g2
I88
sg3
(lp630
(lp631
I0
aI1
aI1
aI1
aI1
aI0
aI1
aI1
aI0
aI1
aa(lp632
I1
aI1
aI1
aI1
aI1
aI1
aI1
aI1
aI1
aI1
aa(lp633
I0
aI1
aI1
aI1
aI1
aI1
aI1
aI1
aI1
aI1
aa(lp634
I1
aI1
aI1
aI1
aI1
aI1
aI1
aI1
aI1
aI1
aa(lp635
I1
aI1
aI1
aI1
aI1
aI1
aI1
aI1
aI1
aI1
aa(lp636
I1
aI0
aI1
aI1
aI0
aI1
aI1
aI1
aI1
aI0
aa(lp637
I1
aI1
aI0
aI1
aI1
aI1
aI1
aI1
aI0
aI1
aa(lp638
I1
aI1
aI0
aI1
aI1
aI1
aI1
aI1
aI1
aI0
aa(lp639
I1
aI1
aI1
aI1
aI1
aI1
aI1
aI1
aI1
aI1
aa(lp640
I1
aI1
aI1
aI0
aI1
aI1
aI1
aI1
aI1
aI1
aassI49
(dp641
g2
I2
sg3
(lp642
(lp643
I0
aI0
aI0
aI0
aI1
aI1
aI0
aI0
aI0
aI0
aa(lp644
I0
aI0
aI0
aI0
aI0
aI0
aI0
aI0
aI0
aI0
aa(lp645
I0
aI0
aI0
aI0
aI0
aI0
aI0
aI0
aI0
aI0
aa(lp646
I0
aI0
aI0
aI0
aI0
aI0
aI0
aI0
aI0
aI0
aa(lp647
I0
aI0
aI0
aI0
aI0
aI0
aI0
aI0
aI0
aI0
aa(lp648
I0
aI0
aI0
aI0
aI0
aI0
aI0
aI0
aI0
aI0
aa(lp649
I0
aI0
aI0
aI0
aI0
aI0
aI0
aI0
aI0
aI0
aa(lp650
I0
aI0
aI0
aI0
aI0
aI0
aI0
aI0
aI0
aI0
aa(lp651
I0
aI0
aI0
aI0
aI0
aI0
aI0
aI0
aI0
aI0
aa(lp652
I0
aI0
aI0
aI0
aI0
aI0
aI0
aI0
aI0
aI0
aassI50
(dp653
g2
I35
sg3
(lp654
(lp655
I0
aI1
aI0
aI0
aI0
aI0
aI0
aI1
aI0
aI0
aa(lp656
I0
aI0
aI1
aI1
aI1
aI0
aI0
aI0
aI0
aI1
aa(lp657
I0
aI0
aI1
aI0
aI1
aI0
aI0
aI1
aI0
aI1
aa(lp658
I1
aI0
aI0
aI0
aI0
aI0
aI1
aI1
aI0
aI0
aa(lp659
I0
aI1
aI0
aI0
aI1
aI0
aI0
aI0
aI1
aI1
aa(lp660
I0
aI0
aI1
aI1
aI0
aI1
aI0
aI0
aI0
aI1
aa(lp661
I0
aI0
aI1
aI0
aI0
aI0
aI1
aI1
aI0
aI0
aa(lp662
I0
aI0
aI0
aI1
aI1
aI0
aI0
aI0
aI0
aI0
aa(lp663
I0
aI0
aI0
aI1
aI1
aI0
aI1
aI0
aI1
aI0
aa(lp664
I1
aI1
aI1
aI1
aI0
aI0
aI0
aI0
aI1
aI0
aassI51
(dp665
g2
I12
sg3
(lp666
(lp667
I0
aI1
aI0
aI0
aI0
aI0
aI0
aI0
aI0
aI0
aa(lp668
I1
aI0
aI0
aI0
aI1
aI0
aI0
aI0
aI0
aI0
aa(lp669
I0
aI0
aI0
aI0
aI0
aI0
aI0
aI0
aI0
aI0
aa(lp670
I0
aI0
aI0
aI0
aI0
aI0
aI0
aI0
aI0
aI1
aa(lp671
I0
aI0
aI0
aI0
aI0
aI0
aI0
aI0
aI0
aI0
aa(lp672
I0
aI0
aI0
aI0
aI0
aI0
aI0
aI0
aI0
aI0
aa(lp673
I0
aI0
aI0
aI0
aI0
aI0
aI1
aI1
aI0
aI0
aa(lp674
I0
aI0
aI1
aI0
aI0
aI0
aI1
aI0
aI0
aI0
aa(lp675
I0
aI0
aI0
aI0
aI0
aI0
aI0
aI0
aI0
aI0
aa(lp676
I0
aI0
aI0
aI1
aI0
aI1
aI0
aI0
aI1
aI1
aassI52
(dp677
g2
I18
sg3
(lp678
(lp679
I0
aI0
aI0
aI0
aI0
aI0
aI0
aI0
aI0
aI1
aa(lp680
I0
aI1
aI0
aI0
aI0
aI0
aI0
aI0
aI0
aI1
aa(lp681
I1
aI0
aI0
aI0
aI0
aI0
aI0
aI1
aI0
aI0
aa(lp682
I0
aI0
aI0
aI0
aI0
aI0
aI0
aI0
aI0
aI0
aa(lp683
I0
aI1
aI0
aI1
aI1
aI0
aI0
aI0
aI0
aI0
aa(lp684
I0
aI0
aI1
aI0
aI0
aI0
aI1
aI0
aI0
aI0
aa(lp685
I0
aI0
aI0
aI0
aI0
aI0
aI0
aI0
aI0
aI0
aa(lp686
I1
aI0
aI1
aI0
aI1
aI0
aI0
aI0
aI1
aI0
aa(lp687
I1
aI0
aI0
aI1
aI1
aI0
aI0
aI0
aI1
aI0
aa(lp688
I0
aI0
aI0
aI0
aI0
aI0
aI0
aI0
aI0
aI0
aassI53
(dp689
g2
I54
sg3
(lp690
(lp691
I1
aI1
aI1
aI0
aI0
aI1
aI1
aI1
aI0
aI0
aa(lp692
I0
aI0
aI1
aI0
aI0
aI1
aI0
aI0
aI1
aI0
aa(lp693
I1
aI1
aI1
aI0
aI1
aI1
aI1
aI0
aI0
aI0
aa(lp694
I0
aI1
aI1
aI1
aI0
aI0
aI1
aI0
aI1
aI0
aa(lp695
I0
aI0
aI1
aI0
aI0
aI0
aI0
aI1
aI1
aI1
aa(lp696
I0
aI1
aI1
aI0
aI0
aI1
aI0
aI1
aI1
aI0
aa(lp697
I0
aI0
aI0
aI1
aI0
aI1
aI0
aI1
aI0
aI1
aa(lp698
I0
aI1
aI1
aI1
aI0
aI1
aI1
aI1
aI1
aI1
aa(lp699
I0
aI1
aI0
aI1
aI0
aI1
aI1
aI0
aI1
aI1
aa(lp700
I1
aI1
aI1
aI1
aI0
aI0
aI1
aI1
aI0
aI1
aassI54
(dp701
g2
I77
sg3
(lp702
(lp703
I0
aI1
aI0
aI0
aI1
aI1
aI1
aI0
aI1
aI0
aa(lp704
I1
aI1
aI1
aI1
aI1
aI0
aI0
aI1
aI1
aI0
aa(lp705
I0
aI0
aI1
aI1
aI1
aI1
aI1
aI1
aI1
aI1
aa(lp706
I1
aI0
aI0
aI1
aI1
aI1
aI1
aI1
aI1
aI1
aa(lp707
I1
aI0
aI0
aI0
aI1
aI1
aI1
aI1
aI1
aI1
aa(lp708
I1
aI0
aI1
aI1
aI1
aI0
aI0
aI1
aI1
aI0
aa(lp709
I1
aI1
aI1
aI1
aI1
aI1
aI1
aI1
aI1
aI1
aa(lp710
I1
aI1
aI1
aI1
aI1
aI1
aI1
aI1
aI1
aI1
aa(lp711
I1
aI1
aI1
aI1
aI1
aI0
aI1
aI1
aI1
aI1
aa(lp712
I1
aI1
aI1
aI1
aI1
aI0
aI0
aI0
aI1
aI1
aassI55
(dp713
g2
I19
sg3
(lp714
(lp715
I0
aI0
aI1
aI1
aI0
aI0
aI0
aI1
aI0
aI0
aa(lp716
I0
aI0
aI0
aI1
aI0
aI0
aI0
aI1
aI0
aI0
aa(lp717
I0
aI0
aI1
aI0
aI1
aI0
aI0
aI0
aI0
aI1
aa(lp718
I0
aI0
aI0
aI0
aI0
aI0
aI0
aI0
aI0
aI0
aa(lp719
I0
aI1
aI0
aI0
aI0
aI0
aI0
aI0
aI0
aI0
aa(lp720
I1
aI0
aI0
aI0
aI1
aI0
aI0
aI0
aI0
aI1
aa(lp721
I0
aI0
aI0
aI0
aI0
aI0
aI1
aI1
aI1
aI0
aa(lp722
I1
aI0
aI0
aI0
aI0
aI0
aI0
aI0
aI1
aI0
aa(lp723
I0
aI0
aI0
aI0
aI0
aI0
aI0
aI0
aI0
aI0
aa(lp724
I0
aI1
aI1
aI0
aI0
aI0
aI0
aI0
aI0
aI0
aassI56
(dp725
g2
I48
sg3
(lp726
(lp727
I0
aI1
aI0
aI0
aI0
aI1
aI0
aI1
aI0
aI0
aa(lp728
I0
aI0
aI0
aI0
aI1
aI1
aI1
aI1
aI1
aI1
aa(lp729
I0
aI0
aI0
aI0
aI1
aI1
aI1
aI0
aI1
aI1
aa(lp730
I1
aI0
aI0
aI1
aI0
aI1
aI0
aI1
aI1
aI0
aa(lp731
I0
aI0
aI0
aI0
aI1
aI1
aI1
aI1
aI0
aI0
aa(lp732
I1
aI0
aI1
aI0
aI1
aI1
aI0
aI0
aI1
aI0
aa(lp733
I1
aI1
aI0
aI0
aI1
aI1
aI0
aI1
aI1
aI1
aa(lp734
I0
aI0
aI0
aI1
aI1
aI1
aI0
aI1
aI1
aI1
aa(lp735
I0
aI0
aI1
aI0
aI1
aI0
aI1
aI1
aI0
aI0
aa(lp736
I0
aI1
aI1
aI0
aI0
aI0
aI1
aI0
aI0
aI0
aassI57
(dp737
g2
I61
sg3
(lp738
(lp739
I1
aI0
aI0
aI0
aI0
aI0
aI1
aI1
aI1
aI1
aa(lp740
I0
aI1
aI1
aI1
aI0
aI1
aI1
aI1
aI0
aI1
aa(lp741
I1
aI1
aI1
aI1
aI1
aI0
aI1
aI1
aI1
aI1
aa(lp742
I0
aI1
aI1
aI0
aI1
aI1
aI1
aI0
aI0
aI0
aa(lp743
I1
aI1
aI1
aI0
aI1
aI1
aI1
aI1
aI0
aI0
aa(lp744
I0
aI0
aI0
aI1
aI1
aI1
aI1
aI1
aI1
aI0
aa(lp745
I0
aI1
aI1
aI0
aI0
aI0
aI1
aI1
aI1
aI1
aa(lp746
I1
aI0
aI1
aI0
aI1
aI1
aI0
aI1
aI0
aI1
aa(lp747
I1
aI1
aI0
aI1
aI1
aI1
aI0
aI1
aI0
aI0
aa(lp748
I0
aI0
aI1
aI1
aI0
aI0
aI0
aI1
aI1
aI0
aassI58
(dp749
g2
I18
sg3
(lp750
(lp751
I0
aI0
aI0
aI0
aI0
aI0
aI0
aI0
aI1
aI0
aa(lp752
I0
aI0
aI0
aI0
aI0
aI0
aI1
aI0
aI0
aI0
aa(lp753
I1
aI0
aI0
aI0
aI1
aI0
aI1
aI0
aI0
aI0
aa(lp754
I1
aI0
aI0
aI0
aI0
aI1
aI0
aI0
aI0
aI0
aa(lp755
I1
aI0
aI0
aI0
aI0
aI0
aI1
aI0
aI0
aI0
aa(lp756
I0
aI0
aI0
aI0
aI0
aI0
aI0
aI1
aI0
aI0
aa(lp757
I0
aI0
aI0
aI0
aI0
aI1
aI0
aI0
aI0
aI0
aa(lp758
I0
aI0
aI0
aI0
aI0
aI1
aI0
aI0
aI0
aI0
aa(lp759
I1
aI0
aI0
aI0
aI0
aI0
aI0
aI1
aI0
aI0
aa(lp760
I0
aI1
aI0
aI1
aI1
aI0
aI0
aI0
aI1
aI0
aassI59
(dp761
g2
I9
sg3
(lp762
(lp763
I0
aI0
aI0
aI0
aI0
aI0
aI1
aI1
aI0
aI0
aa(lp764
I0
aI0
aI0
aI1
aI0
aI0
aI0
aI0
aI0
aI0
aa(lp765
I0
aI0
aI0
aI1
aI0
aI0
aI0
aI0
aI0
aI0
aa(lp766
I0
aI0
aI0
aI0
aI0
aI0
aI0
aI0
aI0
aI0
aa(lp767
I1
aI0
aI0
aI0
aI0
aI0
aI0
aI0
aI0
aI0
aa(lp768
I0
aI0
aI0
aI0
aI0
aI0
aI0
aI0
aI0
aI0
aa(lp769
I0
aI1
aI1
aI0
aI0
aI1
aI0
aI0
aI0
aI0
aa(lp770
I0
aI0
aI0
aI0
aI0
aI0
aI0
aI0
aI0
aI0
aa(lp771
I0
aI0
aI0
aI0
aI0
aI0
aI0
aI0
aI0
aI0
aa(lp772
I0
aI0
aI0
aI0
aI0
aI1
aI0
aI0
aI0
aI0
aassI60
(dp773
g2
I98
sg3
(lp774
(lp775
I1
aI1
aI1
aI1
aI1
aI1
aI1
aI1
aI1
aI1
aa(lp776
I1
aI1
aI1
aI1
aI1
aI1
aI1
aI0
aI1
aI1
aa(lp777
I1
aI1
aI1
aI1
aI1
aI1
aI1
aI1
aI1
aI1
aa(lp778
I1
aI1
aI1
aI1
aI1
aI1
aI1
aI1
aI1
aI1
aa(lp779
I1
aI1
aI1
aI1
aI1
aI1
aI1
aI1
aI1
aI1
aa(lp780
I1
aI1
aI1
aI1
aI1
aI1
aI1
aI1
aI1
aI1
aa(lp781
I1
aI1
aI1
aI1
aI1
aI1
aI1
aI1
aI1
aI1
aa(lp782
I1
aI1
aI1
aI1
aI1
aI1
aI1
aI1
aI1
aI1
aa(lp783
I1
aI1
aI0
aI1
aI1
aI1
aI1
aI1
aI1
aI1
aa(lp784
I1
aI1
aI1
aI1
aI1
aI1
aI1
aI1
aI1
aI1
aassI61
(dp785
g2
I50
sg3
(lp786
(lp787
I0
aI1
aI1
aI1
aI0
aI0
aI1
aI0
aI0
aI0
aa(lp788
I1
aI0
aI0
aI1
aI1
aI0
aI1
aI1
aI1
aI0
aa(lp789
I1
aI0
aI0
aI1
aI0
aI1
aI0
aI1
aI0
aI0
aa(lp790
I0
aI0
aI1
aI1
aI0
aI1
aI1
aI1
aI0
aI0
aa(lp791
I1
aI1
aI0
aI0
aI0
aI0
aI0
aI0
aI1
aI1
aa(lp792
I0
aI0
aI1
aI0
aI1
aI0
aI0
aI0
aI1
aI1
aa(lp793
I1
aI1
aI1
aI1
aI1
aI0
aI1
aI1
aI0
aI0
aa(lp794
I0
aI0
aI1
aI1
aI1
aI0
aI1
aI0
aI0
aI0
aa(lp795
I0
aI1
aI0
aI1
aI1
aI1
aI1
aI0
aI0
aI1
aa(lp796
I0
aI1
aI1
aI0
aI0
aI1
aI0
aI1
aI1
aI1
aassI62
(dp797
g2
I45
sg3
(lp798
(lp799
I0
aI0
aI1
aI0
aI0
aI0
aI0
aI0
aI0
aI1
aa(lp800
I1
aI0
aI1
aI0
aI0
aI0
aI1
aI0
aI1
aI0
aa(lp801
I1
aI1
aI0
aI1
aI1
aI0
aI1
aI0
aI0
aI1
aa(lp802
I1
aI0
aI0
aI0
aI0
aI1
aI0
aI0
aI0
aI0
aa(lp803
I1
aI0
aI1
aI0
aI1
aI1
aI1
aI0
aI1
aI1
aa(lp804
I0
aI0
aI1
aI0
aI0
aI0
aI0
aI0
aI1
aI0
aa(lp805
I1
aI0
aI0
aI0
aI0
aI1
aI0
aI0
aI1
aI0
aa(lp806
I1
aI0
aI1
aI1
aI0
aI1
aI1
aI1
aI0
aI0
aa(lp807
I1
aI1
aI1
aI1
aI0
aI1
aI1
aI0
aI0
aI0
aa(lp808
I0
aI1
aI0
aI1
aI1
aI1
aI1
aI1
aI0
aI1
aassI63
(dp809
g2
I32
sg3
(lp810
(lp811
I1
aI1
aI0
aI1
aI1
aI0
aI0
aI0
aI1
aI1
aa(lp812
I1
aI0
aI0
aI0
aI1
aI0
aI0
aI0
aI0
aI0
aa(lp813
I0
aI0
aI1
aI0
aI0
aI1
aI0
aI0
aI0
aI1
aa(lp814
I0
aI0
aI1
aI1
aI0
aI1
aI1
aI0
aI1
aI0
aa(lp815
I1
aI0
aI0
aI0
aI0
aI0
aI0
aI0
aI1
aI0
aa(lp816
I1
aI0
aI1
aI0
aI1
aI1
aI0
aI1
aI0
aI0
aa(lp817
I0
aI0
aI0
aI1
aI0
aI0
aI0
aI1
aI0
aI0
aa(lp818
I0
aI0
aI0
aI0
aI0
aI0
aI0
aI1
aI0
aI0
aa(lp819
I0
aI0
aI0
aI0
aI1
aI0
aI0
aI0
aI1
aI0
aa(lp820
I0
aI1
aI0
aI0
aI1
aI0
aI1
aI0
aI0
aI1
aassI64
(dp821
g2
I75
sg3
(lp822
(lp823
I1
aI0
aI1
aI1
aI1
aI1
aI1
aI1
aI1
aI1
aa(lp824
I1
aI1
aI0
aI0
aI1
aI0
aI1
aI0
aI1
aI0
aa(lp825
I1
aI0
aI1
aI1
aI1
aI0
aI1
aI1
aI1
aI0
aa(lp826
I0
aI1
aI1
aI0
aI1
aI1
aI1
aI0
aI1
aI1
aa(lp827
I0
aI1
aI1
aI1
aI1
aI1
aI1
aI1
aI1
aI1
aa(lp828
I0
aI1
aI0
aI1
aI1
aI1
aI0
aI1
aI1
aI0
aa(lp829
I1
aI0
aI1
aI1
aI1
aI1
aI1
aI0
aI1
aI1
aa(lp830
I1
aI0
aI0
aI1
aI1
aI1
aI1
aI1
aI0
aI1
aa(lp831
I1
aI1
aI1
aI1
aI1
aI1
aI0
aI1
aI0
aI1
aa(lp832
I0
aI1
aI1
aI1
aI1
aI1
aI1
aI1
aI1
aI1
aassI65
(dp833
g2
I51
sg3
(lp834
(lp835
I0
aI1
aI1
aI1
aI1
aI0
aI1
aI0
aI1
aI0
aa(lp836
I0
aI0
aI0
aI1
aI0
aI0
aI1
aI0
aI1
aI0
aa(lp837
I1
aI0
aI1
aI1
aI0
aI1
aI1
aI0
aI1
aI0
aa(lp838
I1
aI0
aI0
aI0
aI0
aI0
aI1
aI0
aI0
aI0
aa(lp839
I1
aI0
aI1
aI0
aI0
aI0
aI0
aI1
aI0
aI1
aa(lp840
I1
aI0
aI1
aI0
aI1
aI0
aI1
aI0
aI0
aI1
aa(lp841
I0
aI0
aI0
aI1
aI1
aI0
aI1
aI1
aI0
aI1
aa(lp842
I0
aI1
aI0
aI1
aI1
aI0
aI1
aI0
aI1
aI1
aa(lp843
I1
aI1
aI1
aI1
aI1
aI1
aI1
aI0
aI1
aI1
aa(lp844
I0
aI1
aI0
aI0
aI0
aI1
aI1
aI0
aI1
aI1
aassI66
(dp845
g2
I64
sg3
(lp846
(lp847
I1
aI1
aI0
aI0
aI1
aI0
aI1
aI1
aI0
aI0
aa(lp848
I1
aI1
aI1
aI0
aI0
aI1
aI0
aI0
aI1
aI1
aa(lp849
I1
aI1
aI1
aI0
aI1
aI0
aI0
aI1
aI1
aI1
aa(lp850
I1
aI0
aI1
aI1
aI0
aI0
aI0
aI1
aI1
aI0
aa(lp851
I1
aI0
aI1
aI1
aI0
aI1
aI0
aI0
aI1
aI1
aa(lp852
I0
aI0
aI1
aI1
aI0
aI1
aI0
aI1
aI0
aI1
aa(lp853
I1
aI1
aI1
aI1
aI0
aI0
aI1
aI1
aI0
aI1
aa(lp854
I1
aI0
aI1
aI1
aI1
aI1
aI1
aI0
aI1
aI0
aa(lp855
I1
aI1
aI0
aI1
aI1
aI1
aI0
aI1
aI0
aI1
aa(lp856
I1
aI1
aI1
aI0
aI1
aI1
aI1
aI1
aI1
aI1
aassI67
(dp857
g2
I58
sg3
(lp858
(lp859
I0
aI1
aI1
aI0
aI0
aI1
aI1
aI1
aI1
aI0
aa(lp860
I1
aI0
aI0
aI0
aI1
aI1
aI0
aI1
aI0
aI1
aa(lp861
I1
aI0
aI1
aI1
aI0
aI1
aI1
aI1
aI1
aI0
aa(lp862
I1
aI0
aI1
aI0
aI0
aI1
aI0
aI0
aI1
aI1
aa(lp863
I0
aI1
aI1
aI1
aI1
aI0
aI1
aI1
aI0
aI1
aa(lp864
I0
aI0
aI1
aI0
aI0
aI0
aI1
aI1
aI1
aI1
aa(lp865
I1
aI1
aI0
aI0
aI1
aI1
aI1
aI0
aI0
aI1
aa(lp866
I0
aI0
aI1
aI1
aI0
aI1
aI1
aI0
aI1
aI0
aa(lp867
I0
aI1
aI1
aI0
aI1
aI0
aI0
aI0
aI1
aI1
aa(lp868
I0
aI1
aI1
aI1
aI1
aI1
aI0
aI1
aI0
aI1
aassI68
(dp869
g2
I69
sg3
(lp870
(lp871
I1
aI1
aI0
aI0
aI1
aI0
aI1
aI0
aI1
aI1
aa(lp872
I0
aI1
aI0
aI1
aI0
aI1
aI0
aI0
aI1
aI1
aa(lp873
I1
aI1
aI1
aI1
aI1
aI1
aI1
aI1
aI1
aI1
aa(lp874
I1
aI1
aI1
aI1
aI1
aI0
aI1
aI1
aI0
aI1
aa(lp875
I0
aI1
aI0
aI1
aI0
aI1
aI1
aI0
aI1
aI1
aa(lp876
I0
aI0
aI1
aI1
aI1
aI1
aI1
aI0
aI1
aI0
aa(lp877
I1
aI1
aI1
aI1
aI1
aI1
aI0
aI0
aI0
aI0
aa(lp878
I1
aI0
aI1
aI1
aI1
aI1
aI1
aI1
aI1
aI1
aa(lp879
I0
aI1
aI1
aI1
aI1
aI1
aI0
aI0
aI0
aI0
aa(lp880
I1
aI1
aI1
aI1
aI1
aI0
aI1
aI1
aI0
aI1
aassI69
(dp881
g2
I22
sg3
(lp882
(lp883
I0
aI1
aI0
aI0
aI0
aI0
aI0
aI0
aI1
aI1
aa(lp884
I0
aI0
aI0
aI0
aI0
aI0
aI0
aI0
aI0
aI1
aa(lp885
I0
aI0
aI1
aI0
aI0
aI0
aI0
aI0
aI0
aI0
aa(lp886
I0
aI0
aI0
aI1
aI1
aI0
aI0
aI0
aI0
aI0
aa(lp887
I1
aI0
aI0
aI1
aI1
aI0
aI0
aI0
aI0
aI1
aa(lp888
I0
aI0
aI0
aI1
aI0
aI0
aI0
aI1
aI0
aI0
aa(lp889
I0
aI0
aI0
aI1
aI0
aI0
aI0
aI1
aI0
aI1
aa(lp890
I1
aI0
aI0
aI0
aI0
aI0
aI1
aI0
aI0
aI0
aa(lp891
I0
aI0
aI0
aI0
aI0
aI0
aI1
aI0
aI1
aI0
aa(lp892
I0
aI1
aI0
aI0
aI1
aI0
aI0
aI0
aI0
aI0
aassI70
(dp893
g2
I54
sg3
(lp894
(lp895
I0
aI1
aI0
aI1
aI0
aI0
aI0
aI1
aI0
aI0
aa(lp896
I1
aI1
aI1
aI0
aI0
aI0
aI0
aI1
aI0
aI1
aa(lp897
I1
aI0
aI0
aI1
aI1
aI1
aI1
aI1
aI0
aI1
aa(lp898
I1
aI0
aI0
aI0
aI1
aI1
aI0
aI0
aI1
aI1
aa(lp899
I1
aI1
aI1
aI1
aI1
aI0
aI1
aI1
aI1
aI0
aa(lp900
I1
aI1
aI0
aI0
aI0
aI1
aI1
aI1
aI0
aI0
aa(lp901
I1
aI1
aI1
aI0
aI0
aI0
aI0
aI0
aI0
aI1
aa(lp902
I0
aI0
aI1
aI1
aI0
aI0
aI1
aI1
aI0
aI1
aa(lp903
I1
aI0
aI0
aI0
aI1
aI1
aI0
aI1
aI1
aI1
aa(lp904
I0
aI1
aI1
aI1
aI1
aI0
aI1
aI1
aI0
aI0
aassI71
(dp905
g2
I99
sg3
(lp906
(lp907
I1
aI1
aI1
aI1
aI1
aI1
aI1
aI1
aI1
aI1
aa(lp908
I1
aI1
aI1
aI1
aI1
aI1
aI1
aI1
aI1
aI1
aa(lp909
I1
aI1
aI1
aI1
aI1
aI1
aI1
aI1
aI1
aI1
aa(lp910
I1
aI1
aI1
aI1
aI1
aI1
aI1
aI1
aI1
aI1
aa(lp911
I1
aI1
aI1
aI1
aI1
aI1
aI1
aI1
aI1
aI0
aa(lp912
I1
aI1
aI1
aI1
aI1
aI1
aI1
aI1
aI1
aI1
aa(lp913
I1
aI1
aI1
aI1
aI1
aI1
aI1
aI1
aI1
aI1
aa(lp914
I1
aI1
aI1
aI1
aI1
aI1
aI1
aI1
aI1
aI1
aa(lp915
I1
aI1
aI1
aI1
aI1
aI1
aI1
aI1
aI1
aI1
aa(lp916
I1
aI1
aI1
aI1
aI1
aI1
aI1
aI1
aI1
aI1
aassI72
(dp917
g2
I99
sg3
(lp918
(lp919
I1
aI1
aI1
aI1
aI1
aI1
aI1
aI1
aI1
aI1
aa(lp920
I1
aI1
aI1
aI1
aI1
aI1
aI1
aI1
aI1
aI1
aa(lp921
I1
aI1
aI1
aI1
aI1
aI1
aI1
aI1
aI1
aI1
aa(lp922
I1
aI1
aI1
aI1
aI1
aI1
aI1
aI1
aI1
aI1
aa(lp923
I1
aI1
aI1
aI1
aI1
aI1
aI1
aI1
aI1
aI1
aa(lp924
I1
aI1
aI1
aI1
aI0
aI1
aI1
aI1
aI1
aI1
aa(lp925
I1
aI1
aI1
aI1
aI1
aI1
aI1
aI1
aI1
aI1
aa(lp926
I1
aI1
aI1
aI1
aI1
aI1
aI1
aI1
aI1
aI1
aa(lp927
I1
aI1
aI1
aI1
aI1
aI1
aI1
aI1
aI1
aI1
aa(lp928
I1
aI1
aI1
aI1
aI1
aI1
aI1
aI1
aI1
aI1
aassI73
(dp929
g2
I31
sg3
(lp930
(lp931
I0
aI0
aI0
aI0
aI0
aI0
aI0
aI0
aI0
aI1
aa(lp932
I0
aI0
aI1
aI0
aI1
aI0
aI1
aI1
aI0
aI1
aa(lp933
I1
aI0
aI1
aI0
aI0
aI0
aI0
aI1
aI1
aI1
aa(lp934
I1
aI0
aI0
aI1
aI1
aI0
aI0
aI0
aI0
aI1
aa(lp935
I1
aI0
aI0
aI0
aI0
aI0
aI1
aI1
aI0
aI0
aa(lp936
I0
aI0
aI1
aI0
aI1
aI1
aI0
aI0
aI0
aI0
aa(lp937
I0
aI1
aI0
aI0
aI1
aI0
aI0
aI0
aI1
aI0
aa(lp938
I0
aI1
aI0
aI0
aI0
aI0
aI0
aI1
aI0
aI0
aa(lp939
I1
aI0
aI0
aI1
aI0
aI0
aI0
aI0
aI0
aI0
aa(lp940
I0
aI0
aI1
aI0
aI1
aI1
aI0
aI0
aI0
aI0
aassI74
(dp941
g2
I44
sg3
(lp942
(lp943
I1
aI1
aI0
aI0
aI0
aI0
aI0
aI1
aI1
aI0
aa(lp944
I0
aI1
aI1
aI0
aI1
aI0
aI0
aI0
aI1
aI0
aa(lp945
I1
aI1
aI0
aI0
aI1
aI1
aI0
aI0
aI1
aI1
aa(lp946
I0
aI0
aI0
aI1
aI1
aI0
aI0
aI0
aI1
aI1
aa(lp947
I1
aI1
aI0
aI1
aI0
aI1
aI0
aI1
aI1
aI1
aa(lp948
I1
aI0
aI0
aI0
aI0
aI0
aI0
aI1
aI1
aI0
aa(lp949
I1
aI0
aI1
aI1
aI0
aI1
aI0
aI0
aI1
aI0
aa(lp950
I0
aI0
aI0
aI1
aI0
aI1
aI0
aI1
aI1
aI0
aa(lp951
I0
aI1
aI1
aI0
aI1
aI0
aI0
aI1
aI0
aI0
aa(lp952
I1
aI0
aI0
aI0
aI0
aI0
aI1
aI0
aI1
aI0
aassI75
(dp953
g2
I29
sg3
(lp954
(lp955
I1
aI0
aI0
aI0
aI0
aI1
aI0
aI1
aI0
aI1
aa(lp956
I1
aI0
aI0
aI0
aI1
aI0
aI0
aI0
aI0
aI1
aa(lp957
I0
aI1
aI1
aI1
aI0
aI1
aI0
aI1
aI0
aI0
aa(lp958
I1
aI1
aI0
aI0
aI0
aI0
aI1
aI0
aI1
aI0
aa(lp959
I0
aI0
aI0
aI0
aI0
aI0
aI0
aI0
aI1
aI0
aa(lp960
I0
aI0
aI0
aI1
aI0
aI0
aI0
aI0
aI0
aI0
aa(lp961
I0
aI1
aI0
aI0
aI0
aI0
aI1
aI0
aI0
aI0
aa(lp962
I1
aI1
aI0
aI1
aI1
aI1
aI0
aI0
aI0
aI1
aa(lp963
I1
aI0
aI0
aI0
aI0
aI1
aI0
aI0
aI0
aI0
aa(lp964
I1
aI0
aI0
aI0
aI0
aI0
aI0
aI0
aI0
aI0
aassI76
(dp965
g2
I29
sg3
(lp966
(lp967
I0
aI0
aI0
aI1
aI1
aI0
aI0
aI1
aI0
aI1
aa(lp968
I1
aI0
aI0
aI0
aI0
aI0
aI1
aI0
aI1
aI1
aa(lp969
I0
aI1
aI0
aI0
aI0
aI0
aI0
aI0
aI0
aI1
aa(lp970
I0
aI0
aI0
aI0
aI0
aI0
aI0
aI1
aI0
aI0
aa(lp971
I1
aI0
aI0
aI1
aI0
aI0
aI0
aI0
aI0
aI0
aa(lp972
I0
aI0
aI0
aI1
aI1
aI0
aI1
aI0
aI0
aI1
aa(lp973
I0
aI1
aI0
aI0
aI1
aI0
aI1
aI1
aI0
aI1
aa(lp974
I0
aI1
aI0
aI0
aI1
aI1
aI0
aI0
aI0
aI0
aa(lp975
I0
aI0
aI0
aI0
aI0
aI0
aI0
aI1
aI0
aI0
aa(lp976
I0
aI0
aI0
aI1
aI0
aI0
aI1
aI0
aI1
aI0
aassI77
(dp977
g2
I73
sg3
(lp978
(lp979
I0
aI1
aI1
aI0
aI1
aI0
aI1
aI1
aI1
aI1
aa(lp980
I0
aI1
aI0
aI1
aI1
aI0
aI1
aI0
aI1
aI1
aa(lp981
I0
aI1
aI0
aI1
aI1
aI1
aI1
aI1
aI1
aI1
aa(lp982
I1
aI1
aI1
aI1
aI0
aI0
aI1
aI0
aI0
aI1
aa(lp983
I1
aI1
aI1
aI1
aI1
aI1
aI1
aI1
aI1
aI1
aa(lp984
I1
aI1
aI1
aI1
aI0
aI1
aI0
aI1
aI0
aI1
aa(lp985
I1
aI1
aI1
aI1
aI1
aI1
aI1
aI1
aI1
aI1
aa(lp986
I0
aI1
aI1
aI1
aI1
aI1
aI0
aI1
aI1
aI1
aa(lp987
I0
aI0
aI0
aI1
aI1
aI0
aI0
aI1
aI1
aI0
aa(lp988
I0
aI1
aI1
aI1
aI1
aI1
aI1
aI0
aI0
aI1
aassI78
(dp989
g2
I88
sg3
(lp990
(lp991
I1
aI1
aI1
aI1
aI1
aI1
aI1
aI1
aI0
aI1
aa(lp992
I1
aI0
aI1
aI1
aI1
aI1
aI1
aI1
aI1
aI1
aa(lp993
I1
aI1
aI1
aI1
aI1
aI1
aI1
aI1
aI1
aI1
aa(lp994
I1
aI0
aI1
aI1
aI1
aI1
aI1
aI1
aI0
aI1
aa(lp995
I0
aI1
aI1
aI1
aI1
aI1
aI1
aI1
aI0
aI1
aa(lp996
I1
aI1
aI1
aI1
aI1
aI1
aI1
aI1
aI1
aI1
aa(lp997
I1
aI0
aI1
aI1
aI1
aI1
aI0
aI0
aI1
aI1
aa(lp998
I1
aI0
aI1
aI1
aI1
aI1
aI1
aI1
aI1
aI0
aa(lp999
I1
aI1
aI1
aI1
aI1
aI1
aI1
aI1
aI1
aI1
aa(lp1000
I1
aI0
aI1
aI1
aI1
aI1
aI1
aI1
aI1
aI1
aassI79
(dp1001
g2
I91
sg3
(lp1002
(lp1003
I0
aI1
aI1
aI1
aI1
aI0
aI1
aI1
aI1
aI1
aa(lp1004
I1
aI1
aI1
aI1
aI1
aI1
aI1
aI1
aI1
aI1
aa(lp1005
I0
aI1
aI0
aI1
aI1
aI1
aI1
aI0
aI1
aI1
aa(lp1006
I1
aI1
aI1
aI1
aI1
aI1
aI1
aI1
aI1
aI1
aa(lp1007
I1
aI1
aI1
aI1
aI1
aI1
aI1
aI1
aI1
aI1
aa(lp1008
I1
aI1
aI1
aI1
aI1
aI0
aI1
aI1
aI1
aI1
aa(lp1009
I1
aI1
aI1
aI1
aI1
aI1
aI0
aI1
aI1
aI1
aa(lp1010
I0
aI1
aI1
aI1
aI1
aI1
aI1
aI1
aI1
aI1
aa(lp1011
I1
aI1
aI1
aI1
aI1
aI1
aI1
aI1
aI1
aI1
aa(lp1012
I1
aI1
aI1
aI1
aI1
aI1
aI1
aI1
aI1
aI0
aassI80
(dp1013
g2
I56
sg3
(lp1014
(lp1015
I1
aI0
aI0
aI1
aI0
aI1
aI1
aI0
aI0
aI1
aa(lp1016
I0
aI1
aI1
aI1
aI0
aI0
aI0
aI0
aI1
aI1
aa(lp1017
I1
aI1
aI1
aI1
aI0
aI0
aI0
aI1
aI0
aI0
aa(lp1018
I0
aI0
aI1
aI0
aI1
aI1
aI1
aI1
aI0
aI0
aa(lp1019
I1
aI1
aI1
aI0
aI0
aI1
aI1
aI1
aI1
aI0
aa(lp1020
I1
aI1
aI1
aI1
aI1
aI1
aI0
aI1
aI0
aI0
aa(lp1021
I0
aI1
aI1
aI1
aI1
aI0
aI0
aI1
aI1
aI1
aa(lp1022
I0
aI0
aI0
aI1
aI1
aI1
aI0
aI0
aI1
aI1
aa(lp1023
I0
aI0
aI1
aI1
aI1
aI1
aI0
aI0
aI1
aI0
aa(lp1024
I1
aI1
aI1
aI1
aI1
aI0
aI0
aI0
aI0
aI0
aassI81
(dp1025
g2
I28
sg3
(lp1026
(lp1027
I0
aI0
aI0
aI0
aI0
aI0
aI1
aI1
aI0
aI0
aa(lp1028
I1
aI0
aI1
aI0
aI0
aI0
aI0
aI0
aI0
aI0
aa(lp1029
I0
aI0
aI1
aI1
aI1
aI0
aI0
aI0
aI0
aI0
aa(lp1030
I0
aI0
aI0
aI0
aI1
aI0
aI0
aI0
aI0
aI0
aa(lp1031
I0
aI1
aI0
aI0
aI0
aI1
aI0
aI0
aI0
aI1
aa(lp1032
I1
aI1
aI0
aI1
aI1
aI0
aI1
aI0
aI1
aI0
aa(lp1033
I0
aI0
aI1
aI0
aI1
aI1
aI1
aI0
aI0
aI0
aa(lp1034
I1
aI0
aI0
aI0
aI0
aI1
aI0
aI0
aI0
aI0
aa(lp1035
I0
aI1
aI1
aI0
aI0
aI1
aI0
aI0
aI0
aI0
aa(lp1036
I0
aI0
aI1
aI0
aI1
aI0
aI0
aI0
aI0
aI0
aassI82
(dp1037
g2
I8
sg3
(lp1038
(lp1039
I0
aI0
aI0
aI0
aI0
aI0
aI0
aI0
aI0
aI0
aa(lp1040
I0
aI0
aI0
aI0
aI0
aI0
aI0
aI0
aI0
aI0
aa(lp1041
I0
aI0
aI0
aI0
aI0
aI0
aI0
aI0
aI1
aI0
aa(lp1042
I0
aI0
aI0
aI0
aI1
aI0
aI0
aI0
aI0
aI0
aa(lp1043
I0
aI0
aI0
aI0
aI1
aI0
aI0
aI0
aI0
aI0
aa(lp1044
I0
aI0
aI0
aI0
aI0
aI0
aI0
aI0
aI0
aI0
aa(lp1045
I0
aI1
aI0
aI0
aI0
aI0
aI0
aI0
aI1
aI0
aa(lp1046
I0
aI0
aI0
aI0
aI0
aI0
aI0
aI0
aI0
aI0
aa(lp1047
I0
aI0
aI0
aI0
aI0
aI0
aI0
aI0
aI0
aI0
aa(lp1048
I0
aI0
aI1
aI0
aI0
aI0
aI1
aI1
aI0
aI0
aassI83
(dp1049
g2
I95
sg3
(lp1050
(lp1051
I1
aI1
aI1
aI1
aI1
aI1
aI1
aI1
aI1
aI1
aa(lp1052
I1
aI1
aI1
aI1
aI1
aI1
aI1
aI1
aI0
aI1
aa(lp1053
I1
aI1
aI1
aI1
aI1
aI1
aI1
aI1
aI1
aI1
aa(lp1054
I1
aI1
aI1
aI1
aI1
aI1
aI1
aI1
aI1
aI1
aa(lp1055
I0
aI1
aI1
aI1
aI1
aI1
aI1
aI1
aI1
aI1
aa(lp1056
I1
aI0
aI1
aI1
aI1
aI1
aI1
aI1
aI1
aI1
aa(lp1057
I1
aI1
aI1
aI1
aI1
aI1
aI1
aI1
aI1
aI1
aa(lp1058
I1
aI1
aI1
aI1
aI1
aI1
aI1
aI1
aI1
aI1
aa(lp1059
I1
aI1
aI1
aI1
aI1
aI1
aI1
aI1
aI1
aI1
aa(lp1060
I1
aI0
aI1
aI1
aI0
aI1
aI1
aI1
aI1
aI1
aassI84
(dp1061
g2
I61
sg3
(lp1062
(lp1063
I1
aI1
aI1
aI1
aI0
aI1
aI0
aI0
aI0
aI1
aa(lp1064
I1
aI0
aI0
aI0
aI1
aI0
aI1
aI1
aI1
aI1
aa(lp1065
I1
aI0
aI1
aI1
aI0
aI1
aI0
aI1
aI1
aI0
aa(lp1066
I1
aI1
aI1
aI0
aI1
aI1
aI0
aI0
aI0
aI1
aa(lp1067
I1
aI1
aI0
aI1
aI1
aI1
aI1
aI1
aI0
aI1
aa(lp1068
I1
aI0
aI1
aI0
aI1
aI1
aI1
aI0
aI1
aI1
aa(lp1069
I0
aI1
aI0
aI0
aI1
aI0
aI0
aI1
aI1
aI1
aa(lp1070
I0
aI1
aI0
aI0
aI0
aI1
aI1
aI0
aI1
aI0
aa(lp1071
I0
aI1
aI1
aI0
aI1
aI1
aI1
aI0
aI0
aI1
aa(lp1072
I1
aI0
aI0
aI1
aI1
aI1
aI0
aI1
aI1
aI1
aassI85
(dp1073
g2
I46
sg3
(lp1074
(lp1075
I0
aI1
aI0
aI0
aI0
aI1
aI1
aI0
aI1
aI0
aa(lp1076
I1
aI1
aI1
aI1
aI0
aI1
aI1
aI1
aI0
aI1
aa(lp1077
I1
aI1
aI0
aI1
aI0
aI0
aI1
aI0
aI0
aI0
aa(lp1078
I1
aI0
aI1
aI1
aI0
aI0
aI0
aI1
aI0
aI0
aa(lp1079
I0
aI1
aI1
aI1
aI0
aI0
aI0
aI0
aI1
aI1
aa(lp1080
I1
aI1
aI0
aI0
aI0
aI1
aI0
aI1
aI0
aI1
aa(lp1081
I1
aI0
aI1
aI0
aI1
aI0
aI0
aI0
aI1
aI0
aa(lp1082
I0
aI1
aI0
aI0
aI0
aI0
aI0
aI0
aI1
aI1
aa(lp1083
I0
aI1
aI0
aI0
aI0
aI1
aI1
aI0
aI0
aI0
aa(lp1084
I0
aI0
aI0
aI1
aI1
aI1
aI1
aI1
aI0
aI1
aassI86
(dp1085
g2
I79
sg3
(lp1086
(lp1087
I1
aI1
aI1
aI0
aI1
aI1
aI1
aI1
aI1
aI1
aa(lp1088
I1
aI1
aI1
aI1
aI1
aI1
aI1
aI1
aI1
aI1
aa(lp1089
I1
aI1
aI0
aI1
aI0
aI1
aI1
aI1
aI1
aI0
aa(lp1090
I1
aI1
aI1
aI1
aI0
aI0
aI1
aI1
aI1
aI1
aa(lp1091
I1
aI1
aI1
aI1
aI1
aI0
aI1
aI0
aI0
aI1
aa(lp1092
I1
aI1
aI1
aI0
aI1
aI1
aI1
aI1
aI0
aI1
aa(lp1093
I1
aI1
aI1
aI1
aI0
aI1
aI1
aI1
aI1
aI0
aa(lp1094
I0
aI1
aI0
aI1
aI1
aI0
aI1
aI1
aI1
aI1
aa(lp1095
I0
aI1
aI0
aI1
aI1
aI0
aI0
aI1
aI1
aI1
aa(lp1096
I1
aI1
aI1
aI1
aI0
aI1
aI1
aI1
aI1
aI1
aassI87
(dp1097
g2
I55
sg3
(lp1098
(lp1099
I1
aI1
aI1
aI0
aI0
aI1
aI1
aI0
aI1
aI0
aa(lp1100
I0
aI0
aI1
aI0
aI0
aI1
aI1
aI1
aI0
aI1
aa(lp1101
I0
aI0
aI1
aI0
aI0
aI1
aI1
aI0
aI1
aI1
aa(lp1102
I1
aI0
aI1
aI1
aI1
aI1
aI1
aI1
aI1
aI1
aa(lp1103
I0
aI0
aI1
aI1
aI1
aI1
aI0
aI1
aI1
aI1
aa(lp1104
I0
aI0
aI0
aI1
aI0
aI1
aI1
aI1
aI0
aI1
aa(lp1105
I0
aI1
aI1
aI1
aI0
aI0
aI0
aI1
aI0
aI1
aa(lp1106
I1
aI0
aI1
aI0
aI0
aI0
aI0
aI1
aI0
aI0
aa(lp1107
I1
aI0
aI1
aI0
aI0
aI0
aI1
aI0
aI0
aI1
aa(lp1108
I1
aI1
aI0
aI0
aI1
aI1
aI0
aI1
aI1
aI0
aassI88
(dp1109
g2
I4
sg3
(lp1110
(lp1111
I0
aI0
aI0
aI0
aI0
aI0
aI0
aI0
aI1
aI0
aa(lp1112
I0
aI0
aI0
aI0
aI0
aI0
aI0
aI0
aI0
aI0
aa(lp1113
I0
aI0
aI0
aI0
aI0
aI0
aI0
aI0
aI0
aI0
aa(lp1114
I0
aI0
aI0
aI0
aI0
aI0
aI0
aI0
aI0
aI0
aa(lp1115
I0
aI0
aI0
aI0
aI0
aI0
aI0
aI0
aI1
aI0
aa(lp1116
I0
aI0
aI0
aI0
aI0
aI0
aI0
aI0
aI0
aI0
aa(lp1117
I0
aI0
aI0
aI0
aI0
aI0
aI0
aI0
aI0
aI0
aa(lp1118
I0
aI0
aI0
aI0
aI0
aI0
aI0
aI0
aI0
aI0
aa(lp1119
I0
aI0
aI0
aI0
aI0
aI0
aI0
aI0
aI0
aI0
aa(lp1120
I0
aI0
aI1
aI0
aI1
aI0
aI0
aI0
aI0
aI0
aassI89
(dp1121
g2
I82
sg3
(lp1122
(lp1123
I1
aI0
aI1
aI1
aI1
aI1
aI1
aI0
aI1
aI1
aa(lp1124
I1
aI1
aI1
aI1
aI1
aI1
aI1
aI0
aI1
aI1
aa(lp1125
I1
aI0
aI0
aI1
aI1
aI1
aI1
aI1
aI1
aI1
aa(lp1126
I1
aI0
aI1
aI1
aI1
aI1
aI1
aI1
aI1
aI1
aa(lp1127
I1
aI1
aI1
aI0
aI1
aI1
aI1
aI1
aI0
aI1
aa(lp1128
I1
aI1
aI1
aI1
aI0
aI1
aI1
aI1
aI1
aI1
aa(lp1129
I1
aI1
aI0
aI1
aI1
aI1
aI1
aI1
aI1
aI1
aa(lp1130
I1
aI1
aI1
aI1
aI1
aI1
aI1
aI1
aI0
aI0
aa(lp1131
I0
aI1
aI1
aI1
aI1
aI0
aI0
aI1
aI0
aI1
aa(lp1132
I0
aI1
aI1
aI1
aI0
aI1
aI1
aI1
aI1
aI1
aassI90
(dp1133
g2
I42
sg3
(lp1134
(lp1135
I1
aI1
aI1
aI0
aI0
aI1
aI0
aI0
aI1
aI0
aa(lp1136
I0
aI1
aI1
aI0
aI0
aI0
aI0
aI0
aI0
aI1
aa(lp1137
I0
aI1
aI1
aI1
aI0
aI0
aI0
aI0
aI1
aI0
aa(lp1138
I0
aI1
aI0
aI0
aI1
aI0
aI0
aI0
aI1
aI0
aa(lp1139
I1
aI1
aI0
aI0
aI0
aI0
aI1
aI1
aI0
aI1
aa(lp1140
I0
aI1
aI1
aI0
aI0
aI0
aI1
aI0
aI1
aI0
aa(lp1141
I0
aI1
aI1
aI1
aI0
aI0
aI1
aI1
aI1
aI1
aa(lp1142
I0
aI1
aI0
aI1
aI0
aI1
aI1
aI0
aI0
aI0
aa(lp1143
I0
aI0
aI0
aI0
aI0
aI1
aI0
aI1
aI0
aI0
aa(lp1144
I1
aI0
aI0
aI1
aI0
aI1
aI0
aI1
aI1
aI0
aassI91
(dp1145
g2
I1
sg3
(lp1146
(lp1147
I0
aI0
aI0
aI0
aI0
aI0
aI0
aI0
aI0
aI0
aa(lp1148
I0
aI0
aI0
aI0
aI0
aI0
aI0
aI0
aI0
aI0
aa(lp1149
I0
aI0
aI0
aI0
aI0
aI0
aI0
aI0
aI0
aI0
aa(lp1150
I0
aI0
aI0
aI0
aI0
aI0
aI0
aI0
aI0
aI0
aa(lp1151
I0
aI0
aI0
aI0
aI0
aI0
aI0
aI0
aI0
aI0
aa(lp1152
I0
aI0
aI0
aI0
aI0
aI0
aI0
aI0
aI0
aI0
aa(lp1153
I0
aI0
aI0
aI0
aI0
aI0
aI0
aI0
aI0
aI0
aa(lp1154
I0
aI0
aI0
aI0
aI0
aI0
aI0
aI0
aI0
aI0
aa(lp1155
I0
aI0
aI0
aI0
aI0
aI0
aI0
aI0
aI0
aI0
aa(lp1156
I0
aI0
aI0
aI0
aI0
aI0
aI0
aI1
aI0
aI0
aassI92
(dp1157
g2
I46
sg3
(lp1158
(lp1159
I1
aI0
aI1
aI0
aI0
aI1
aI1
aI0
aI0
aI1
aa(lp1160
I0
aI1
aI1
aI0
aI0
aI1
aI0
aI0
aI0
aI0
aa(lp1161
I0
aI1
aI0
aI0
aI0
aI1
aI0
aI1
aI0
aI1
aa(lp1162
I0
aI1
aI0
aI1
aI0
aI0
aI1
aI0
aI0
aI0
aa(lp1163
I1
aI0
aI1
aI1
aI0
aI1
aI1
aI0
aI0
aI0
aa(lp1164
I0
aI0
aI1
aI1
aI1
aI0
aI1
aI0
aI0
aI0
aa(lp1165
I1
aI0
aI1
aI1
aI1
aI1
aI0
aI1
aI0
aI1
aa(lp1166
I1
aI0
aI0
aI0
aI0
aI1
aI1
aI0
aI0
aI0
aa(lp1167
I1
aI0
aI1
aI1
aI0
aI1
aI0
aI0
aI1
aI1
aa(lp1168
I1
aI1
aI0
aI0
aI1
aI0
aI1
aI1
aI0
aI1
aassI93
(dp1169
g2
I16
sg3
(lp1170
(lp1171
I0
aI0
aI0
aI0
aI0
aI0
aI0
aI0
aI0
aI0
aa(lp1172
I0
aI1
aI0
aI0
aI0
aI0
aI0
aI0
aI0
aI0
aa(lp1173
I0
aI0
aI0
aI1
aI0
aI0
aI0
aI1
aI1
aI0
aa(lp1174
I0
aI0
aI0
aI1
aI0
aI0
aI1
aI0
aI0
aI0
aa(lp1175
I0
aI0
aI1
aI0
aI0
aI0
aI0
aI0
aI0
aI1
aa(lp1176
I0
aI0
aI0
aI0
aI0
aI0
aI1
aI0
aI0
aI0
aa(lp1177
I0
aI0
aI0
aI1
aI0
aI0
aI0
aI0
aI1
aI1
aa(lp1178
I0
aI0
aI0
aI1
aI0
aI0
aI0
aI0
aI0
aI1
aa(lp1179
I0
aI0
aI0
aI0
aI0
aI0
aI0
aI0
aI0
aI0
aa(lp1180
I0
aI1
aI0
aI0
aI0
aI0
aI0
aI0
aI0
aI1
aassI94
(dp1181
g2
I95
sg3
(lp1182
(lp1183
I1
aI1
aI1
aI0
aI1
aI1
aI1
aI1
aI0
aI1
aa(lp1184
I1
aI1
aI1
aI1
aI1
aI1
aI1
aI1
aI1
aI1
aa(lp1185
I1
aI1
aI1
aI1
aI1
aI1
aI1
aI1
aI1
aI1
aa(lp1186
I1
aI1
aI1
aI1
aI1
aI0
aI1
aI1
aI0
aI1
aa(lp1187
I1
aI1
aI1
aI1
aI1
aI1
aI1
aI1
aI1
aI1
aa(lp1188
I1
aI1
aI1
aI1
aI0
aI1
aI1
aI1
aI1
aI1
aa(lp1189
I1
aI1
aI1
aI1
aI1
aI1
aI1
aI1
aI1
aI1
aa(lp1190
I1
aI1
aI1
aI1
aI1
aI1
aI1
aI1
aI1
aI1
aa(lp1191
I1
aI1
aI1
aI1
aI1
aI1
aI1
aI1
aI1
aI1
aa(lp1192
I1
aI1
aI1
aI1
aI1
aI1
aI1
aI1
aI1
aI1
aassI95
(dp1193
g2
I96
sg3
(lp1194
(lp1195
I1
aI1
aI1
aI1
aI1
aI0
aI1
aI1
aI1
aI1
aa(lp1196
I1
aI1
aI1
aI1
aI1
aI1
aI1
aI1
aI1
aI1
aa(lp1197
I1
aI1
aI1
aI1
aI1
aI1
aI1
aI1
aI1
aI1
aa(lp1198
I1
aI1
aI1
aI1
aI1
aI1
aI1
aI1
aI1
aI1
aa(lp1199
I1
aI1
aI1
aI1
aI1
aI1
aI0
aI1
aI1
aI1
aa(lp1200
I1
aI1
aI1
aI1
aI1
aI1
aI0
aI1
aI1
aI1
aa(lp1201
I1
aI1
aI1
aI1
aI1
aI1
aI1
aI1
aI1
aI1
aa(lp1202
I1
aI1
aI1
aI1
aI1
aI1
aI1
aI1
aI1
aI1
aa(lp1203
I1
aI1
aI1
aI1
aI1
aI1
aI1
aI1
aI1
aI1
aa(lp1204
I1
aI1
aI1
aI1
aI1
aI1
aI1
aI0
aI1
aI1
aassI96
(dp1205
g2
I3
sg3
(lp1206
(lp1207
I0
aI0
aI0
aI0
aI0
aI0
aI0
aI0
aI0
aI0
aa(lp1208
I0
aI0
aI0
aI0
aI0
aI0
aI1
aI0
aI0
aI0
aa(lp1209
I0
aI0
aI0
aI0
aI0
aI0
aI0
aI0
aI0
aI0
aa(lp1210
I0
aI0
aI0
aI0
aI0
aI0
aI0
aI0
aI0
aI0
aa(lp1211
I0
aI0
aI1
aI0
aI0
aI1
aI0
aI0
aI0
aI0
aa(lp1212
I0
aI0
aI0
aI0
aI0
aI0
aI0
aI0
aI0
aI0
aa(lp1213
I0
aI0
aI0
aI0
aI0
aI0
aI0
aI0
aI0
aI0
aa(lp1214
I0
aI0
aI0
aI0
aI0
aI0
aI0
aI0
aI0
aI0
aa(lp1215
I0
aI0
aI0
aI0
aI0
aI0
aI0
aI0
aI0
aI0
aa(lp1216
I0
aI0
aI0
aI0
aI0
aI0
aI0
aI0
aI0
aI0
aassI97
(dp1217
g2
I46
sg3
(lp1218
(lp1219
I1
aI1
aI1
aI1
aI1
aI1
aI1
aI1
aI1
aI0
aa(lp1220
I0
aI1
aI0
aI1
aI0
aI1
aI1
aI0
aI1
aI0
aa(lp1221
I0
aI0
aI1
aI0
aI1
aI1
aI0
aI1
aI1
aI0
aa(lp1222
I0
aI1
aI0
aI0
aI0
aI1
aI1
aI0
aI1
aI1
aa(lp1223
I1
aI1
aI1
aI0
aI0
aI0
aI0
aI1
aI1
aI0
aa(lp1224
I1
aI1
aI0
aI0
aI0
aI0
aI1
aI1
aI0
aI0
aa(lp1225
I0
aI1
aI0
aI0
aI0
aI1
aI0
aI0
aI1
aI0
aa(lp1226
I1
aI0
aI0
aI0
aI0
aI0
aI1
aI0
aI1
aI0
aa(lp1227
I1
aI0
aI0
aI1
aI1
aI0
aI1
aI0
aI1
aI0
aa(lp1228
I1
aI1
aI0
aI0
aI0
aI0
aI0
aI0
aI0
aI0
aassI98
(dp1229
g2
I65
sg3
(lp1230
(lp1231
I0
aI1
aI1
aI0
aI0
aI1
aI1
aI1
aI1
aI1
aa(lp1232
I1
aI0
aI1
aI1
aI0
aI1
aI1
aI1
aI1
aI0
aa(lp1233
I1
aI1
aI1
aI1
aI1
aI1
aI0
aI0
aI0
aI0
aa(lp1234
I1
aI0
aI0
aI0
aI1
aI1
aI1
aI0
aI1
aI1
aa(lp1235
I1
aI1
aI1
aI0
aI0
aI1
aI1
aI0
aI0
aI1
aa(lp1236
I1
aI0
aI0
aI1
aI1
aI1
aI0
aI1
aI1
aI1
aa(lp1237
I0
aI1
aI1
aI1
aI0
aI1
aI1
aI1
aI0
aI1
aa(lp1238
I1
aI1
aI1
aI1
aI1
aI1
aI0
aI1
aI0
aI1
aa(lp1239
I1
aI0
aI0
aI1
aI1
aI0
aI1
aI0
aI0
aI1
aa(lp1240
I0
aI0
aI1
aI1
aI0
aI1
aI1
aI1
aI0
aI1
aassI99
(dp1241
g2
I29
sg3
(lp1242
(lp1243
I1
aI0
aI0
aI0
aI1
aI0
aI0
aI0
aI0
aI0
aa(lp1244
I1
aI1
aI0
aI0
aI0
aI1
aI0
aI0
aI0
aI0
aa(lp1245
I0
aI0
aI0
aI0
aI0
aI0
aI0
aI0
aI1
aI0
aa(lp1246
I0
aI1
aI0
aI0
aI1
aI1
aI0
aI0
aI0
aI1
aa(lp1247
I0
aI1
aI0
aI0
aI0
aI0
aI0
aI0
aI0
aI0
aa(lp1248
I1
aI1
aI1
aI0
aI1
aI0
aI0
aI1
aI1
aI0
aa(lp1249
I0
aI1
aI0
aI1
aI0
aI0
aI1
aI0
aI1
aI0
aa(lp1250
I0
aI0
aI0
aI0
aI1
aI0
aI1
aI0
aI1
aI0
aa(lp1251
I0
aI0
aI0
aI0
aI1
aI0
aI1
aI0
aI0
aI1
aa(lp1252
I0
aI0
aI0
aI0
aI1
aI1
aI0
aI0
aI0
aI0
aass.